(lp0
(iservices.model
CryptoBuyInfo
p1
(dp2
S'totalFees'
p3
F68.25000000000001
sS'totalNativeAmount'
p4
F1677.5900000000001
sS'totalCurrencyAmount'
p5
F26.081961450000005
sS'totalTaxDue'
p6
F58.21546609560005
sS'buyList'
p7
(lp8
(iservices.model
Transaction
p9
(dp10
S'tax'
p11
F-12.100868874959994
sS'id'
p12
S'df7a6660-bc4f-5309-b882-8d87d5ab5ce4'
p13
sS'currency'
p14
S'AUD'
p15
sS'amount'
p16
F2.22496893
sS'coinCurrency'
p17
VLTC
p18
sS'fees'
p19
F7.98
sS'date'
p20
cdatetime
datetime
p21
(S'\x07\xe1\t\t\x08:\x1d\x00\x00\x00'
p22
ccopy_reg
_reconstructor
p23
(cdateutil.tz.tz
tzutc
p24
cdatetime
tzinfo
p25
g25
(tRp26
tp27
Rp28
tp29
Rp30
sS'native_amount'
p31
F200.0
sS'transactionType'
p32
I0
sba(iservices.model
Transaction
p33
(dp34
g11
F-13.97488213608
sg12
S'1462a762-dd35-5328-ba6d-68d4abeb00d6'
p35
sg14
g15
sg16
F2.13791889
sg17
VLTC
p36
sg19
F7.98
sg20
g21
(S'\x07\xe1\t\x04\n0+\x00\x00\x00'
p37
g23
(g24
g25
g25
(tRp38
tp39
Rp40
tp41
Rp42
sg31
F200.0
sg32
I0
sba(iservices.model
Transaction
p43
(dp44
g11
F-25.962317132399996
sg12
S'3d2ce0ba-6246-566f-8be0-c69e28bf7738'
p45
sg14
g15
sg16
F2.97462295
sg17
VLTC
p46
sg19
F11.97
sg20
g21
(S'\x07\xe1\t\x02\t4\x0f\x00\x00\x00'
p47
g23
(g24
g25
g25
(tRp48
tp49
Rp50
tp51
Rp52
sg31
F300.0
sg32
I0
sba(iservices.model
Transaction
p53
(dp54
g11
F-6.640606199039993
sg12
S'b3863d4d-3813-55f8-9c3d-b7484e7c5afd'
p55
sg14
g15
sg16
F2.47860432
sg17
VLTC
p56
sg19
F7.98
sg20
g21
(S"\x07\xe1\x08\x1d\x162'\x00\x00\x00"
p57
g23
(g24
g25
g25
(tRp58
tp59
Rp60
tp61
Rp62
sg31
F200.0
sg32
I0
sba(iservices.model
Transaction
p63
(dp64
g11
F13.013648169360001
sg12
S'570cee5b-d4f3-5643-9ee3-0e11d29104cf'
p65
sg14
g15
sg16
F2.33248087
sg17
VLTC
p66
sg19
F4.95
sg20
g21
(S'\x07\xe1\x07\x11\x10\x10(\x00\x00\x00'
p67
g23
(g24
g25
g25
(tRp68
tp69
Rp70
tp71
Rp72
sg31
F124.0
sg32
I0
sba(iservices.model
Transaction
p73
(dp74
g11
F3.4291220052000058
sg12
S'bb36b9ba-5a41-5f4a-9813-05df368e1e3e'
p75
sg14
g15
sg16
F1.32511715
sg17
VLTC
p76
sg19
F3.34
sg20
g21
(S'\x07\xe1\x07\x0c\x11\x16#\x00\x00\x00'
p77
g23
(g24
g25
g25
(tRp78
tp79
Rp80
tp81
Rp82
sg31
F83.66
sg32
I0
sba(iservices.model
Transaction
p83
(dp84
g11
F12.63001297560001
sg12
S'56a22164-e937-5091-871b-1b9daf9b7d1c'
p85
sg14
g15
sg16
F2.16792145
sg17
VLTC
p86
sg19
F4.53
sg20
g21
(S'\x07\xe1\x06\x1c\x08\x03\x03\x00\x00\x00'
p87
g23
(g24
g25
g25
(tRp88
tp89
Rp90
tp91
Rp92
sg31
F113.47
sg32
I0
sba(iservices.model
Transaction
p93
(dp94
g11
F2.353262183280002
sg12
S'cb15b9c2-005e-53d5-bbc2-377fed6aaec8'
p95
sg14
g15
sg16
F0.72260601
sg17
VLTC
p96
sg19
F1.99
sg20
g21
(S'\x07\xe1\x06\x17\t(.\x00\x00\x00'
p97
g23
(g24
g25
g25
(tRp98
tp99
Rp100
tp101
Rp102
sg31
F44.01
sg32
I0
sba(iservices.model
Transaction
p103
(dp104
g11
F1.961256536880002
sg12
S'5b08b00d-9250-5bc3-ad07-0a26a2dd59d7'
p105
sg14
g15
sg16
F0.69032221
sg17
VLTC
p106
sg19
F1.99
sg20
g21
(S'\x07\xe1\x06\x14\x08\x1d#\x00\x00\x00'
p107
g23
(g24
g25
g25
(tRp108
tp109
Rp110
tp111
Rp112
sg31
F43.0
sg32
I0
sba(iservices.model
Transaction
p113
(dp114
g11
F9.51819348984
sg12
S'74130c31-1623-564f-8f68-abffa2f13ec8'
p115
sg14
g15
sg16
F1.06936053
sg17
VLTC
p116
sg19
F1.99
sg20
g21
(S'\x07\xe1\x06\x0c\t\x1d8\x00\x00\x00'
p117
g23
(g24
g25
g25
(tRp118
tp119
Rp120
tp121
Rp122
sg31
F45.01
sg32
I0
sba(iservices.model
Transaction
p123
(dp124
g11
F8.504733905040004
sg12
S'bcb237b2-49d9-5cae-8c8d-36806d4eca63'
p125
sg14
g15
sg16
F0.88279143
sg17
VLTC
p126
sg19
F1.99
sg20
g21
(S'\x07\xe1\x06\n\x15\x174\x00\x00\x00'
p127
g23
(g24
g25
g25
(tRp128
tp129
Rp130
tp131
Rp132
sg31
F35.0
sg32
I0
sba(iservices.model
Transaction
p133
(dp134
g11
F11.62755974424
sg12
S'74143f3c-3685-5154-9dd0-f7af6c917a94'
p135
sg14
g15
sg16
F1.23688033
sg17
VLTC
p136
sg19
F2.0
sg20
g21
(S'\x07\xe1\x06\t\x0f\x0c\x00\x00\x00\x00'
p137
g23
(g24
g25
g25
(tRp138
tp139
Rp140
tp141
Rp142
sg31
F50.0
sg32
I0
sba(iservices.model
Transaction
p143
(dp144
g11
F12.07532384544
sg12
S'96dbad15-a47b-5670-bbd7-a96a552881e8'
p145
sg14
g15
sg16
F1.25767948
sg17
VLTC
p146
sg19
F2.0
sg20
g21
(S'\x07\xe1\x06\x07\x0f\x1a*\x00\x00\x00'
p147
g23
(g24
g25
g25
(tRp148
tp149
Rp150
tp151
Rp152
sg31
F50.0
sg32
I0
sba(iservices.model
Transaction
p153
(dp154
g11
F41.7810275832
sg12
S'b30ebb06-734b-5044-8dec-81f6ef51b37e'
p155
sg14
g15
sg16
F4.5806869
sg17
VLTC
p156
sg19
F7.56
sg20
g21
(S'\x07\xe1\x06\x06\t\x18$\x00\x00\x00'
p157
g23
(g24
g25
g25
(tRp158
tp159
Rp160
tp161
Rp162
sg31
F189.44
sg32
I0
sbasba(iservices.model
CryptoBuyInfo
p163
(dp164
g3
F136.87
sg4
F3296.7900000000013
sg5
F10.03481079
sg6
F171.9705387814201
sg7
(lp165
(iservices.model
Transaction
p166
(dp167
g11
F10.144419675660009
sg12
S'ad5c6235-d491-5eea-8602-fd09a254b515'
p168
sg14
g15
sg16
F0.60627167
sg17
VETH
p169
sg19
F7.98
sg20
g21
(S'\x07\xe1\t\x0f\x10\x10\x01\x00\x00\x00'
p170
g23
(g24
g25
g25
(tRp171
tp172
Rp173
tp174
Rp175
sg31
F200.0
sg32
I0
sba(iservices.model
Transaction
p176
(dp177
g11
F16.00773096468001
sg12
S'0b4da150-ad03-5aec-a975-1ba4cbd8dafa'
p178
sg14
g15
sg16
F1.00699866
sg17
VETH
p179
sg19
F13.37
sg20
g21
(S'\x07\xe1\t\r\x0e\x11.\x00\x00\x00'
p180
g23
(g24
g25
g25
(tRp181
tp182
Rp183
tp184
Rp185
sg31
F335.0
sg32
I0
sba(iservices.model
Transaction
p186
(dp187
g11
F-3.6809999999999943
sg12
S'03421331-a702-57fb-80f2-4ed0be64a2a5'
p188
sg14
g15
sg16
F1.0
sg17
VETH
p189
sg19
F15.88
sg20
g21
(S'\x07\xe1\t\x05\x00\x119\x00\x00\x00'
p190
g23
(g24
g25
g25
(tRp191
tp192
Rp193
tp194
Rp195
sg31
F397.93
sg32
I0
sba(iservices.model
Transaction
p196
(dp197
g11
F-3.7647753726599915
sg12
S'741b90ad-b34e-55b3-a555-5114f41da967'
p198
sg14
g15
sg16
F0.48605183
sg17
VETH
p199
sg19
F7.98
sg20
g21
(S'\x07\xe1\t\x04\n1\x04\x00\x00\x00'
p200
g23
(g24
g25
g25
(tRp201
tp202
Rp203
tp204
Rp205
sg31
F200.0
sg32
I0
sba(iservices.model
Transaction
p206
(dp207
g11
F14.911164232380003
sg12
S'ecc49513-62ae-598c-803f-5e167dfec123'
p208
sg14
g15
sg16
F0.90676731
sg17
VETH
p209
sg19
F11.97
sg20
g21
(S'\x07\xe1\x08\x06\x02\x064\x00\x00\x00'
p210
g23
(g24
g25
g25
(tRp211
tp212
Rp213
tp214
Rp215
sg31
F300.0
sg32
I0
sba(iservices.model
Transaction
p216
(dp217
g11
F43.45301276604002
sg12
S'e0be27a0-9869-5485-95d5-63be4942ae1c'
p218
sg14
g15
sg16
F1.15345998
sg17
VETH
p219
sg19
F11.97
sg20
g21
(S'\x07\xe1\x07\x1a\x0c\x05"\x00\x00\x00'
p220
g23
(g24
g25
g25
(tRp221
tp222
Rp223
tp224
Rp225
sg31
F300.0
sg32
I0
sba(iservices.model
Transaction
p226
(dp227
g11
F19.682481435960014
sg12
S'3abedc27-98e7-5f4d-9585-5525a7cc16fa'
p228
sg14
g15
sg16
F0.55908902
sg17
VETH
p229
sg19
F5.99
sg20
g21
(S'\x07\xe1\x07\x15\x14$\x18\x00\x00\x00'
p230
g23
(g24
g25
g25
(tRp231
tp232
Rp233
tp234
Rp235
sg31
F150.01
sg32
I0
sba(iservices.model
Transaction
p236
(dp237
g11
F14.105155483620004
sg12
S'83310560-c44b-5d61-9609-b15cab052166'
p238
sg14
g15
sg16
F0.29307469
sg17
VETH
p239
sg19
F2.99
sg20
g21
(S'\x07\xe1\x07\x0f\x15\x01\x13\x00\x00\x00'
p240
g23
(g24
g25
g25
(tRp241
tp242
Rp243
tp244
Rp245
sg31
F66.01
sg32
I0
sba(iservices.model
Transaction
p246
(dp247
g11
F5.34514799844
sg12
S'862449f9-2cf0-5bbe-a42f-c9ee796dff7b'
p248
sg14
g15
sg16
F0.12917378
sg17
VETH
p249
sg19
F1.99
sg20
g21
(S'\x07\xe1\x07\x0e\x153\x19\x00\x00\x00'
p250
g23
(g24
g25
g25
(tRp251
tp252
Rp253
tp254
Rp255
sg31
F32.0
sg32
I0
sba(iservices.model
Transaction
p256
(dp257
g11
F16.776895266600008
sg12
S'a2532e21-c625-59d1-8486-be3d6f91fb88'
p258
sg14
g15
sg16
F0.4492117
sg17
VETH
p259
sg19
F4.68
sg20
g21
(S'\x07\xe1\x07\x0e\n\x17\x03\x00\x00\x00'
p260
g23
(g24
g25
g25
(tRp261
tp262
Rp263
tp264
Rp265
sg31
F117.32
sg32
I0
sba(iservices.model
Transaction
p266
(dp267
g11
F10.61801944992
sg12
S'3077a1c6-0c25-567d-abc1-4e860d0ae2ac'
p268
sg14
g15
sg16
F0.29373904
sg17
VETH
p269
sg19
F3.11
sg20
g21
(S'\x07\xe1\x07\x0b\x0c\x0c\x13\x00\x00\x00'
p270
g23
(g24
g25
g25
(tRp271
tp272
Rp273
tp274
Rp275
sg31
F77.89
sg32
I0
sba(iservices.model
Transaction
p276
(dp277
g11
F12.486813186600008
sg12
S'7e7781e7-54ae-512b-9ec2-206e2219ed5c'
p278
sg14
g15
sg16
F0.5542517
sg17
VETH
p279
sg19
F6.87
sg20
g21
(S'\x07\xe1\x07\n\t\x025\x00\x00\x00'
p280
g23
(g24
g25
g25
(tRp281
tp282
Rp283
tp284
Rp285
sg31
F172.13
sg32
I0
sba(iservices.model
Transaction
p286
(dp287
g11
F1.525664301000001
sg12
S'08f84791-f465-525e-8f12-0a14cb0d4c5d'
p288
sg14
g15
sg16
F0.1376745
sg17
VETH
p289
sg19
F1.99
sg20
g21
(S'\x07\xe1\x07\x05\x0c\x0f\n\x00\x00\x00'
p290
g23
(g24
g25
g25
(tRp291
tp292
Rp293
tp294
Rp295
sg31
F48.01
sg32
I0
sba(iservices.model
Transaction
p296
(dp297
g11
F3.60357384708
sg12
S'6bde078c-680c-5d91-8ce2-ec10748706fd'
p298
sg14
g15
sg16
F0.41513746
sg17
VETH
p299
sg19
F5.91
sg20
g21
(S'\x07\xe1\x07\x04\x13& \x00\x00\x00'
p300
g23
(g24
g25
g25
(tRp301
tp302
Rp303
tp304
Rp305
sg31
F148.09
sg32
I0
sba(iservices.model
Transaction
p306
(dp307
g11
F2.5446661414800005
sg12
S'0c879e4a-8c0e-5dfa-8520-c4160e03fff0'
p308
sg14
g15
sg16
F0.22147026
sg17
VETH
p309
sg19
F3.07
sg20
g21
(S'\x07\xe1\x07\x02\x0f7\n\x00\x00\x00'
p310
g23
(g24
g25
g25
(tRp311
tp312
Rp313
tp314
Rp315
sg31
F76.93
sg32
I0
sba(iservices.model
Transaction
p316
(dp317
g11
F1.3176814951200015
sg12
S'b02751a5-bc8e-53c9-b43b-0ad77c31686a'
p318
sg14
g15
sg16
F0.16180644
sg17
VETH
p319
sg19
F2.99
sg20
g21
(S'\x07\xe1\x07\x01\x0c0\x1b\x00\x00\x00'
p320
g23
(g24
g25
g25
(tRp321
tp322
Rp323
tp324
Rp325
sg31
F58.01
sg32
I0
sba(iservices.model
Transaction
p326
(dp327
g11
F0.05589439884000029
sg12
S'b4d00bb2-4a29-5e8f-b8d4-488ac350d19d'
p328
sg14
g15
sg16
F0.22490358
sg17
VETH
p329
sg19
F3.45
sg20
g21
(S'\x07\xe1\x06\x1e\x10\x11+\x00\x00\x00'
p330
g23
(g24
g25
g25
(tRp331
tp332
Rp333
tp334
Rp335
sg31
F86.55
sg32
I0
sba(iservices.model
Transaction
p336
(dp337
g11
F16.65678681714
sg12
S'3d74ce89-b4c5-5028-b396-026f5094ba77'
p338
sg14
g15
sg16
F0.80224193
sg17
VETH
p339
sg19
F10.13
sg20
g21
(S'\x07\xe1\x06\x1a\x10\x1b\x00\x00\x00\x00'
p340
g23
(g24
g25
g25
(tRp341
tp342
Rp343
tp344
Rp345
sg31
F253.87
sg32
I0
sba(iservices.model
Transaction
p346
(dp347
g11
F0.041263715520000584
sg12
S'ed0cf409-ee45-5171-ae1f-7b9211c11233'
p348
sg14
g15
sg16
F0.02112624
sg17
VETH
p349
sg19
F0.99
sg20
g21
(S'\x07\xe1\x06\x19\x127\x1d\x00\x00\x00'
p350
g23
(g24
g25
g25
(tRp351
tp352
Rp353
tp354
Rp355
sg31
F8.01
sg32
I0
sba(iservices.model
Transaction
p356
(dp357
g11
F-0.4085664274199992
sg12
S'c5f4de32-144d-5625-af73-ccb1eaf53090'
p358
sg14
g15
sg16
F0.08206221
sg17
VETH
p359
sg19
F1.99
sg20
g21
(S'\x07\xe1\x06\x19\r\x183\x00\x00\x00'
p360
g23
(g24
g25
g25
(tRp361
tp362
Rp363
tp364
Rp365
sg31
F33.01
sg32
I0
sba(iservices.model
Transaction
p366
(dp367
g11
F-1.3637373680999965
sg12
S'8c91da7e-8786-5d0a-837e-858916e9c157'
p368
sg14
g15
sg16
F0.13085155
sg17
VETH
p369
sg19
F2.99
sg20
g21
(S'\x07\xe1\x06\x18\x1183\x00\x00\x00'
p370
g23
(g24
g25
g25
(tRp371
tp372
Rp373
tp374
Rp375
sg31
F55.01
sg32
I0
sba(iservices.model
Transaction
p376
(dp377
g11
F-0.8362184065799987
sg12
S'0793a72a-13da-5ced-92cc-4076d0ca84df'
p378
sg14
g15
sg16
F0.09130479
sg17
VETH
p379
sg19
F1.99
sg20
g21
(S'\x07\xe1\x06\x16\x08\x03\x14\x00\x00\x00'
p380
g23
(g24
g25
g25
(tRp381
tp382
Rp383
tp384
Rp385
sg31
F38.0
sg32
I0
sba(iservices.model
Transaction
p386
(dp387
g11
F-1.6228765535399987
sg12
S'95e35816-e006-5cbf-bd77-62d4eddc5d15'
p388
sg14
g15
sg16
F0.09749627
sg17
VETH
p389
sg19
F1.99
sg20
g21
(S'\x07\xe1\x06\x15\t& \x00\x00\x00'
p390
g23
(g24
g25
g25
(tRp391
tp392
Rp393
tp394
Rp395
sg31
F43.01
sg32
I0
sba(iservices.model
Transaction
p396
(dp397
g11
F-1.2176549932799994
sg12
S'947a8b4a-8b33-5af8-8e5b-daf89d4deffb'
p398
sg14
g15
sg16
F0.04652064
sg17
VETH
p399
sg19
F1.49
sg20
g21
(S'\x07\xe1\x06\x13\x063\x1d\x00\x00\x00'
p400
g23
(g24
g25
g25
(tRp401
tp402
Rp403
tp404
Rp405
sg31
F22.0
sg32
I0
sba(iservices.model
Transaction
p406
(dp407
g11
F-4.4110032730799995
sg12
S'b62ef0d2-36cd-5ae5-a4ef-14370794729a'
p408
sg14
g15
sg16
F0.16412554
sg17
VETH
p409
sg19
F3.11
sg20
g21
(S'\x07\xe1\x06\x12\x112.\x00\x00\x00'
p410
g23
(g24
g25
g25
(tRp411
tp412
Rp413
tp414
Rp415
sg31
F78.0
sg32
I0
sbasba(iservices.model
CryptoBuyInfo
p416
(dp417
g3
F32.669999999999995
sg4
F772.32
sg5
F0.14939733
sg6
F112.58357350248
sg7
(lp418
(iservices.model
Transaction
p419
(dp420
g11
F12.107831999999984
sg12
S'403fe2ca-aeb9-58bd-a226-f0506bdf1b5d'
p421
sg14
g15
sg16
F0.072
sg17
VBTC
p422
sg19
F20.46
sg20
g21
(S'\x07\xe1\n\r\x06\x1b\x1c\x00\x00\x00'
p423
g23
(g24
g25
g25
(tRp424
tp425
Rp426
tp427
Rp428
sg31
F512.71
sg32
I0
sba(iservices.model
Transaction
p429
(dp430
g11
F62.850487555680004
sg12
S'e64fab5d-50c9-5575-9671-1f1e6bec41dc'
p431
sg14
g15
sg16
F0.04818078
sg17
VBTC
p432
sg19
F6.41
sg20
g21
(S'\x07\xe1\x07\x07\x14$\x11\x00\x00\x00'
p433
g23
(g24
g25
g25
(tRp434
tp435
Rp436
tp437
Rp438
sg31
F160.6
sg32
I0
sba(iservices.model
Transaction
p439
(dp440
g11
F29.067360774239997
sg12
S'928b53f2-5932-5af9-9861-f4aabda81636'
p441
sg14
g15
sg16
F0.02237854
sg17
VBTC
p442
sg19
F2.99
sg20
g21
(S'\x07\xe1\x06\x1d\n\x0f"\x00\x00\x00'
p443
g23
(g24
g25
g25
(tRp444
tp445
Rp446
tp447
Rp448
sg31
F75.01
sg32
I0
sba(iservices.model
Transaction
p449
(dp450
g11
F4.41670073448
sg12
S'588ebad8-efb5-519c-a48a-ebcc643b04ba'
p451
sg14
g15
sg16
F0.00386933
sg17
VBTC
p452
sg19
F1.49
sg20
g21
(S'\x07\xe1\x06\x0b\x07\x07/\x00\x00\x00'
p453
g23
(g24
g25
g25
(tRp454
tp455
Rp456
tp457
Rp458
sg31
F15.0
sg32
I0
sba(iservices.model
Transaction
p459
(dp460
g11
F4.14119243808
sg12
S'09119724-8903-5177-a5f2-c2dc743f97a4'
p461
sg14
g15
sg16
F0.00296868
sg17
VBTC
p462
sg19
F1.32
sg20
g21
(S'\x07\xe1\x05\x16\x0f86\x00\x00\x00'
p463
g23
(g24
g25
g25
(tRp464
tp465
Rp466
tp467
Rp468
sg31
F9.0
sg32
I0
sbasba.