(dp0
S'ETH'
p1
(dp2
S'Fri Feb 17 00:00:00 2017'
p3
F16.56826446246313
sS'Tue Mar 14 00:00:00 2017'
p4
F37.749811456013205
sS'Sat Apr 23 00:00:00 2016'
p5
F10.85906975903261
sS'Thu Dec  3 00:00:00 2015'
p6
F1.124221668685626
sS'Mon Apr  4 00:00:00 2016'
p7
F14.71169152211668
sS'Sat Oct 14 00:00:00 2017'
p8
F425.073417793293
sS'Sun Jun 26 00:00:00 2016'
p9
F18.614886614984268
sS'Fri Jul 14 00:00:00 2017'
p10
F252.86677744149662
sS'Sat Dec 31 00:00:00 2016'
p11
F11.123862838449169
sS'Sun Sep 13 00:00:00 2015'
p12
F1.324624392430893
sS'Mon Oct 24 00:00:00 2016'
p13
F15.648393480693368
sS'Tue Sep 22 00:00:00 2015'
p14
F1.268109960019307
sS'Fri Mar 24 00:00:00 2017'
p15
F66.80664559358053
sS'Sun Mar 27 00:00:00 2016'
p16
F13.82151375148264
sS'Fri Feb 19 00:00:00 2016'
p17
F6.28630788304539
sS'Fri Jan  1 00:00:00 2016'
p18
F1.296896405997187
sS'Tue May 24 00:00:00 2016'
p19
F17.64387558144711
sS'Mon Jul 17 00:00:00 2017'
p20
F241.68806825214438
sS'Wed Jul  5 00:00:00 2017'
p21
F349.56693451689785
sS'Sun Jun 12 00:00:00 2016'
p22
F21.288891246170845
sS'Sat Jan  9 00:00:00 2016'
p23
F1.474066810494127
sS'Fri May 20 00:00:00 2016'
p24
F18.95949239047068
sS'Sat Mar  4 00:00:00 2017'
p25
F24.537453966487842
sS'Tue Mar 29 00:00:00 2016'
p26
F15.37656962357814
sS'Wed Feb 15 00:00:00 2017'
p27
F16.773620873556716
sS'Mon Sep 12 00:00:00 2016'
p28
F15.662730668563473
sS'Sun Aug 21 00:00:00 2016'
p29
F14.644280440441255
sS'Mon Jun  6 00:00:00 2016'
p30
F18.921330326721367
sS'Sat Mar 11 00:00:00 2017'
p31
F28.365928241164358
sS'Tue Oct 27 00:00:00 2015'
p32
F1.186516174291327
sS'Tue Jun 28 00:00:00 2016'
p33
F16.6332899745263
sS'Fri Jul 21 00:00:00 2017'
p34
F274.3762456953735
sS'Sat May 13 00:00:00 2017'
p35
F120.73538629320095
sS'Sun Jan 31 00:00:00 2016'
p36
F3.248575596495578
sS'Sat Oct  8 00:00:00 2016'
p37
F16.040801254127373
sS'Tue Jan 31 00:00:00 2017'
p38
F14.096617997801301
sS'Mon Dec  5 00:00:00 2016'
p39
F9.116800318372526
sS'Sun Sep  3 00:00:00 2017'
p40
F439.16049689515654
sS'Mon Nov  7 00:00:00 2016'
p41
F14.092628851324983
sS'Tue Jan 10 00:00:00 2017'
p42
F14.297057812439483
sS'Wed Oct 18 00:00:00 2017'
p43
F400.8377696905577
sS'Fri Jul 29 00:00:00 2016'
p44
F16.893139095007527
sS'Fri Aug  7 00:00:00 2015'
p45
F3.81410320385
sS'Fri Jan 13 00:00:00 2017'
p46
F12.880114776252421
sS'Thu Mar  9 00:00:00 2017'
p47
F23.50831831221292
sS'Mon Mar 28 00:00:00 2016'
p48
F15.47713993223795
sS'Fri May 12 00:00:00 2017'
p49
F119.4380245519732
sS'Fri Oct  7 00:00:00 2016'
p50
F16.672907193414105
sS'Tue Aug 22 00:00:00 2017'
p51
F394.5688637929226
sS'Tue Aug 16 00:00:00 2016'
p52
F13.31735529395128
sS'Tue Aug  8 00:00:00 2017'
p53
F373.095446982175
sS'Mon Feb 27 00:00:00 2017'
p54
F20.013203787843334
sS'Sun Aug 14 00:00:00 2016'
p55
F14.704845488235849
sS'Fri Jun  9 00:00:00 2017'
p56
F372.3094692411237
sS'Sun Apr 16 00:00:00 2017'
p57
F64.23487760140185
sS'Fri May 26 00:00:00 2017'
p58
F218.94089830443318
sS'Sat Oct 29 00:00:00 2016'
p59
F13.602477994375532
sS'Thu Oct  6 00:00:00 2016'
p60
F16.91526565241995
sS'Sat Jun 25 00:00:00 2016'
p61
F19.11206511325396
sS'Mon Jun 27 00:00:00 2016'
p62
F18.979255457383964
sS'Sat Jan 16 00:00:00 2016'
p63
F1.768260555933307
sS'Mon Aug 31 00:00:00 2015'
p64
F1.901955965183102
sS'Tue Apr  4 00:00:00 2017'
p65
F55.2368912599916
sS'Fri Dec  4 00:00:00 2015'
p66
F1.142865995190425
sS'Sun Dec 25 00:00:00 2016'
p67
F10.0682096907291
sS'Thu Nov 10 00:00:00 2016'
p68
F13.824894724038126
sS'Sat Dec 12 00:00:00 2015'
p69
F1.351375683323669
sS'Fri Apr 14 00:00:00 2017'
p70
F62.73677104012593
sS'Thu Jan 12 00:00:00 2017'
p71
F12.927396927968207
sS'Wed Jun  8 00:00:00 2016'
p72
F19.271326959082018
sS'Thu May 19 00:00:00 2016'
p73
F20.33508864448823
sS'Sat Apr  8 00:00:00 2017'
p74
F59.33502577464636
sS'Sat Nov  5 00:00:00 2016'
p75
F14.419218245483634
sS'Mon Mar  7 00:00:00 2016'
p76
F12.58486887463001
sS'Wed Oct  5 00:00:00 2016'
p77
F17.152953059189745
sS'Fri Jan 22 00:00:00 2016'
p78
F2.101645686792876
sS'Wed Mar  9 00:00:00 2016'
p79
F15.99184470327901
sS'Sat Sep 17 00:00:00 2016'
p80
F16.925221262614073
sS'Fri Apr  8 00:00:00 2016'
p81
F12.92226849304056
sS'Sat Mar 25 00:00:00 2017'
p82
F66.47272848912782
sS'Thu Sep 24 00:00:00 2015'
p83
F1.16347502376736
sS'Sat Mar 12 00:00:00 2016'
p84
F17.68392028992424
sS'Wed Nov 25 00:00:00 2015'
p85
F1.196617224845807
sS'Tue Jul 11 00:00:00 2017'
p86
F254.44428702590136
sS'Sat Nov 19 00:00:00 2016'
p87
F13.170494907783503
sS'Fri Aug  4 00:00:00 2017'
p88
F279.55695156303574
sS'Sun Mar 20 00:00:00 2016'
p89
F13.44832838953626
sS'Thu Jun 23 00:00:00 2016'
p90
F17.983373517754913
sS'Tue Oct 18 00:00:00 2016'
p91
F16.307359163134436
sS'Wed Apr  5 00:00:00 2017'
p92
F60.22742511469437
sS'Sat Mar 18 00:00:00 2017'
p93
F41.96370706969657
sS'Wed Aug 26 00:00:00 2015'
p94
F1.57175763353225
sS'Wed Sep 23 00:00:00 2015'
p95
F1.277302092290494
sS'Mon Aug 22 00:00:00 2016'
p96
F14.48778229521155
sS'Tue Aug 15 00:00:00 2017'
p97
F368.78517118213233
sS'Thu Oct  5 00:00:00 2017'
p98
F377.0971631843627
sS'Thu Dec 31 00:00:00 2015'
p99
F1.287081169709727
sS'Sun Jul 23 00:00:00 2017'
p100
F286.43605161788395
sS'Mon Jun  5 00:00:00 2017'
p101
F332.50269339508037
sS'Mon Jul  4 00:00:00 2016'
p102
F15.15465690080456
sS'Tue Jan 24 00:00:00 2017'
p103
F13.714461022947601
sS'Mon Sep 14 00:00:00 2015'
p104
F1.224866432900439
sS'Wed Oct 12 00:00:00 2016'
p105
F15.676198897489918
sS'Thu Sep 22 00:00:00 2016'
p106
F17.30551191669694
sS'Tue Dec  8 00:00:00 2015'
p107
F1.13368435281948
sS'Thu May 11 00:00:00 2017'
p108
F119.98334833287339
sS'Sat May  7 00:00:00 2016'
p109
F12.734109456113684
sS'Tue Dec 27 00:00:00 2016'
p110
F9.979125705274319
sS'Fri Apr 15 00:00:00 2016'
p111
F10.62190427080166
sS'Sun Apr 30 00:00:00 2017'
p112
F106.6391559409517
sS'Tue Feb  2 00:00:00 2016'
p113
F3.410815533601907
sS'Mon Jun 19 00:00:00 2017'
p114
F476.5596218796901
sS'Mon Feb  8 00:00:00 2016'
p115
F4.468371424943682
sS'Thu Jun 30 00:00:00 2016'
p116
F17.90107775411081
sS'Mon May 16 00:00:00 2016'
p117
F15.28556124676274
sS'Thu Jun 15 00:00:00 2017'
p118
F456.6048365116226
sS'Sun Apr  3 00:00:00 2016'
p119
F14.99579562058754
sS'Tue Nov  8 00:00:00 2016'
p120
F14.054094824178964
sS'Sat Jan  2 00:00:00 2016'
p121
F1.285744061168813
sS'Tue Mar  1 00:00:00 2016'
p122
F10.54235404362113
sS'Sat Aug 22 00:00:00 2015'
p123
F1.885618767638156
sS'Fri Jun  3 00:00:00 2016'
p124
F18.784649122546817
sS'Mon Aug  7 00:00:00 2017'
p125
F339.5467440032156
sS'Fri May 27 00:00:00 2016'
p126
F15.57415703933447
sS'Wed Mar 16 00:00:00 2016'
p127
F16.59825333999172
sS'Thu Sep 10 00:00:00 2015'
p128
F1.649433293096056
sS'Tue Sep  1 00:00:00 2015'
p129
F1.923942705319332
sS'Thu Oct 20 00:00:00 2016'
p130
F15.750813429936633
sS'Thu Aug 17 00:00:00 2017'
p131
F379.3266869435353
sS'Sun Feb  7 00:00:00 2016'
p132
F4.173560095057401
sS'Sat Jan 14 00:00:00 2017'
p133
F12.933854534114356
sS'Thu Oct 19 00:00:00 2017'
p134
F391.4676383163383
sS'Sat Sep  2 00:00:00 2017'
p135
F434.4533442156571
sS'Thu Sep  3 00:00:00 2015'
p136
F1.799524827717593
sS'Thu Jun  2 00:00:00 2016'
p137
F19.06840685590684
sS'Tue Dec 15 00:00:00 2015'
p138
F1.413431774313963
sS'Thu Mar 16 00:00:00 2017'
p139
F51.949383014997956
sS'Sat Jul 23 00:00:00 2016'
p140
F19.271538023145403
sS'Thu Apr  7 00:00:00 2016'
p141
F13.36081824980134
sS'Thu Nov 17 00:00:00 2016'
p142
F13.441658006284857
sS'Fri Oct 30 00:00:00 2015'
p143
F1.45967004894696
sS'Sun May 21 00:00:00 2017'
p144
F199.3651027016794
sS'Fri Jul  7 00:00:00 2017'
p145
F317.54296337984164
sS'Mon Oct 12 00:00:00 2015'
p146
F0.8545840611121829
sS'Fri Mar 25 00:00:00 2016'
p147
F14.17112370050221
sS'Wed Aug  9 00:00:00 2017'
p148
F376.4133314318353
sS'Mon May 23 00:00:00 2016'
p149
F18.3175803392274
sS'Sun Nov  6 00:00:00 2016'
p150
F14.241128750758062
sS'Sun May 14 00:00:00 2017'
p151
F121.9045331222249
sS'Mon Jul 10 00:00:00 2017'
p152
F276.8031053681273
sS'Thu Feb  4 00:00:00 2016'
p153
F3.554029420854069
sS'Sat Jan 28 00:00:00 2017'
p154
F13.978391049581159
sS'Tue Oct 25 00:00:00 2016'
p155
F14.745499145480977
sS'Tue Nov 29 00:00:00 2016'
p156
F10.899922162916553
sS'Fri Jul 22 00:00:00 2016'
p157
F19.174682872649765
sS'Thu Dec  8 00:00:00 2016'
p158
F11.129474449686649
sS'Mon Jan 16 00:00:00 2017'
p159
F12.740415106675972
sS'Mon May 22 00:00:00 2017'
p160
F205.73099120726232
sS'Sun Oct  8 00:00:00 2017'
p161
F394.7735924858452
sS'Sat Jul  9 00:00:00 2016'
p162
F14.521775307404441
sS'Sat Jul 16 00:00:00 2016'
p163
F15.442028543193876
sS'Thu Oct 29 00:00:00 2015'
p164
F1.642929436783349
sS'Tue Aug 30 00:00:00 2016'
p165
F14.917434560900924
sS'Sun Jul  9 00:00:00 2017'
p166
F314.16224368863766
sS'Sat May 28 00:00:00 2016'
p167
F16.38021017381579
sS'Sat Oct 31 00:00:00 2015'
p168
F1.270902476166409
sS'Sat Aug 19 00:00:00 2017'
p169
F374.0840583298357
sS'Mon Dec 12 00:00:00 2016'
p170
F11.29905413208805
sS'Mon May 30 00:00:00 2016'
p171
F17.64835516545151
sS'Thu Jun 29 00:00:00 2017'
p172
F390.65585261555765
sS'Fri Oct 23 00:00:00 2015'
p173
F0.7489942579923825
sS'Mon Dec 21 00:00:00 2015'
p174
F1.247769681909768
sS'Wed May 11 00:00:00 2016'
p175
F13.54044501422116
sS'Tue Sep 29 00:00:00 2015'
p176
F0.9407002769884092
sS'Mon Jun 20 00:00:00 2016'
p177
F15.850437235298733
sS'Thu Feb 11 00:00:00 2016'
p178
F8.45557452589958
sS'Fri Oct  2 00:00:00 2015'
p179
F0.9586926353593886
sS'Sun Feb 21 00:00:00 2016'
p180
F6.513311235877457
sS'Sat May 20 00:00:00 2017'
p181
F164.98924205702937
sS'Thu Dec 15 00:00:00 2016'
p182
F10.553188083559535
sS'Wed Jun 29 00:00:00 2016'
p183
F17.18732933315959
sS'Thu Jan 19 00:00:00 2017'
p184
F13.746967335138649
sS'Fri Nov 13 00:00:00 2015'
p185
F1.268357512664175
sS'Sun Oct 30 00:00:00 2016'
p186
F14.718789835828938
sS'Fri Aug 26 00:00:00 2016'
p187
F14.880674707512945
sS'Sun Feb 12 00:00:00 2017'
p188
F14.81331234329346
sS'Wed Jan  6 00:00:00 2016'
p189
F1.369756570522598
sS'Wed Sep 13 00:00:00 2017'
p190
F347.4538680016389
sS'Mon Apr 25 00:00:00 2016'
p191
F10.11966871953634
sS'Sat Oct  1 00:00:00 2016'
p192
F17.319778231878622
sS'Sat Mar  5 00:00:00 2016'
p193
F14.69837013404845
sS'Tue Aug 23 00:00:00 2016'
p194
F14.461119245284593
sS'Sun Oct 11 00:00:00 2015'
p195
F0.8698897896992884
sS'Wed Mar 15 00:00:00 2017'
p196
F44.39348077738632
sS'Sun Mar  5 00:00:00 2017'
p197
F25.37208813005667
sS'Thu Oct 27 00:00:00 2016'
p198
F15.097782790649763
sS'Fri Nov 27 00:00:00 2015'
p199
F1.213619796469984
sS'Thu Sep 28 00:00:00 2017'
p200
F375.019695729803
sS'Fri Dec  2 00:00:00 2016'
p201
F10.236528372726138
sS'Sun Dec 27 00:00:00 2015'
p202
F1.180331593934358
sS'Sat Apr  2 00:00:00 2016'
p203
F15.05231052031204
sS'Fri May 19 00:00:00 2017'
p204
F163.8448283554437
sS'Fri Feb 10 00:00:00 2017'
p205
F14.701807833598744
sS'Thu Mar 17 00:00:00 2016'
p206
F14.3406893327311
sS'Mon Dec 26 00:00:00 2016'
p207
F10.114628125713253
sS'Mon Jul 25 00:00:00 2016'
p208
F18.492185027909464
sS'Sat Sep  5 00:00:00 2015'
p209
F1.931822483415128
sS'Wed Dec  7 00:00:00 2016'
p210
F10.869903997040662
sS'Tue Apr 12 00:00:00 2016'
p211
F9.78552857603815
sS'Thu Sep 29 00:00:00 2016'
p212
F17.158436071455178
sS'Tue Apr  5 00:00:00 2016'
p213
F13.81309201654081
sS'Sun Mar  6 00:00:00 2016'
p214
F14.76022327998601
sS'Mon Jan 30 00:00:00 2017'
p215
F13.984801776027277
sS'Mon Jan 18 00:00:00 2016'
p216
F2.03835612302176
sS'Wed Aug 17 00:00:00 2016'
p217
F14.015507946830464
sS'Wed Jul 26 00:00:00 2017'
p218
F250.42752234991144
sS'Wed Apr  6 00:00:00 2016'
p219
F14.03133171207341
sS'Sat May 14 00:00:00 2016'
p220
F13.999986465728767
sS'Wed Apr 12 00:00:00 2017'
p221
F61.35129846367769
sS'Wed Nov 18 00:00:00 2015'
p222
F1.399471311711836
sS'Sun Mar 26 00:00:00 2017'
p223
F65.6003004630352
sS'Mon Jul 24 00:00:00 2017'
p224
F283.4367752727578
sS'Sat May 27 00:00:00 2017'
p225
F213.4798633836448
sS'Sat Jul 15 00:00:00 2017'
p226
F219.41166887384483
sS'Sun Nov  1 00:00:00 2015'
p227
F1.483968858034977
sS'Mon Nov 14 00:00:00 2016'
p228
F13.222084229348251
sS'Tue Sep 12 00:00:00 2017'
p229
F362.29980100818386
sS'Fri May 13 00:00:00 2016'
p230
F14.56303285935968
sS'Wed Nov  4 00:00:00 2015'
p231
F1.259098658081802
sS'Mon Sep 25 00:00:00 2017'
p232
F362.95946270222123
sS'Fri Sep  1 00:00:00 2017'
p233
F484.80103970539557
sS'Tue Nov 10 00:00:00 2015'
p234
F1.329842910731274
sS'Sat Jul  1 00:00:00 2017'
p235
F341.368220609185
sS'Tue Jan 19 00:00:00 2016'
p236
F1.993936697662579
sS'Tue Apr 11 00:00:00 2017'
p237
F58.45517900671163
sS'Thu Dec 22 00:00:00 2016'
p238
F10.501978269034733
sS'Wed Oct  7 00:00:00 2015'
p239
F0.8464345676831599
sS'Sat Dec 24 00:00:00 2016'
p240
F10.066564393052959
sS'Fri Dec 25 00:00:00 2015'
p241
F1.196188543874012
sS'Tue Sep 13 00:00:00 2016'
p242
F15.928280819632574
sS'Fri Sep  8 00:00:00 2017'
p243
F377.75161019934814
sS'Fri Oct 21 00:00:00 2016'
p244
F15.888829243126674
sS'Wed Mar  1 00:00:00 2017'
p245
F22.3490865233699
sS'Sat Sep  9 00:00:00 2017'
p246
F371.93549061575106
sS'Wed Jun  7 00:00:00 2017'
p247
F339.47930891955673
sS'Sun Sep 11 00:00:00 2016'
p248
F15.388260856470552
sS'Thu Jan 28 00:00:00 2016'
p249
F3.558331384474704
sS'Thu Sep  8 00:00:00 2016'
p250
F14.825323647841673
sS'Sat Feb 18 00:00:00 2017'
p251
F16.70757074889364
sS'Thu Sep 15 00:00:00 2016'
p252
F15.83194291615947
sS'Sat Aug 12 00:00:00 2017'
p253
F390.9128136275175
sS'Sun Oct  9 00:00:00 2016'
p254
F15.825288401686258
sS'Fri Sep 16 00:00:00 2016'
p255
F16.708282958714943
sS'Tue Mar 28 00:00:00 2017'
p256
F65.82447091013445
sS'Mon Oct 23 00:00:00 2017'
p257
F370.43056141872665
sS'Thu Oct 12 00:00:00 2017'
p258
F386.0694448550143
sS'Mon Oct  5 00:00:00 2015'
p259
F0.8868762957628296
sS'Thu Sep  7 00:00:00 2017'
p260
F408.7755191904142
sS'Fri Nov  4 00:00:00 2016'
p261
F14.50113145415255
sS'Fri Aug  5 00:00:00 2016'
p262
F14.356448410505854
sS'Sat Dec 17 00:00:00 2016'
p263
F10.706617737125203
sS'Mon Apr  3 00:00:00 2017'
p264
F57.301753211874946
sS'Mon May  2 00:00:00 2016'
p265
F13.18445343166606
sS'Wed Apr 26 00:00:00 2017'
p266
F73.40626523571582
sS'Sat Oct  7 00:00:00 2017'
p267
F398.4049588940104
sS'Wed Dec 21 00:00:00 2016'
p268
F10.867424203741862
sS'Mon Apr 17 00:00:00 2017'
p269
F63.72845864793921
sS'Wed Aug 31 00:00:00 2016'
p270
F15.283944981172116
sS'Thu Sep 14 00:00:00 2017'
p271
F267.86992536421764
sS'Tue Oct  6 00:00:00 2015'
p272
F0.9015307356949358
sS'Wed May 24 00:00:00 2017'
p273
F253.92045507486276
sS'Mon Oct 17 00:00:00 2016'
p274
F15.690628371629522
sS'Wed Sep 30 00:00:00 2015'
p275
F1.049245636116706
sS'Sun Sep 18 00:00:00 2016'
p276
F16.50996158366868
sS'Sun Oct 15 00:00:00 2017'
p277
F425.410394664705
sS'Sun Dec 18 00:00:00 2016'
p278
F10.791193088870054
sS'Fri May  5 00:00:00 2017'
p279
F122.73627680152707
sS'Sun Dec 20 00:00:00 2015'
p280
F1.259510475717372
sS'Sun Jan 24 00:00:00 2016'
p281
F3.04299151361762
sS'Fri Apr  7 00:00:00 2017'
p282
F56.534817044234366
sS'Thu Apr 27 00:00:00 2017'
p283
F85.63640156761673
sS'Sat Feb 25 00:00:00 2017'
p284
F17.64921093512153
sS'Tue Jun 27 00:00:00 2017'
p285
F370.1194161111133
sS'Fri Sep 23 00:00:00 2016'
p286
F17.462897830534654
sS'Wed Jul 19 00:00:00 2017'
p287
F250.85613780926994
sS'Mon May  1 00:00:00 2017'
p288
F102.12576013344668
sS'Fri Nov  6 00:00:00 2015'
p289
F1.28986939379895
sS'Sat Dec  5 00:00:00 2015'
p290
F1.178047358940086
sS'Mon Apr 10 00:00:00 2017'
p291
F58.44473135110908
sS'Fri Nov 18 00:00:00 2016'
p292
F12.879236204166304
sS'Wed Oct 11 00:00:00 2017'
p293
F388.7162487410322
sS'Thu Feb 16 00:00:00 2017'
p294
F16.683029343916466
sS'Wed Jan 18 00:00:00 2017'
p295
F13.477886010177734
sS'Wed Jul 20 00:00:00 2016'
p296
F16.226526702688805
sS'Thu Nov  3 00:00:00 2016'
p297
F14.054338319450501
sS'Thu Jan  7 00:00:00 2016'
p298
F1.367051934560497
sS'Mon Nov  2 00:00:00 2015'
p299
F1.337659338676884
sS'Tue Oct 10 00:00:00 2017'
p300
F385.24490068305033
sS'Mon Dec 14 00:00:00 2015'
p301
F1.373922630654322
sS'Sun Feb 19 00:00:00 2017'
p302
F16.654580846190473
sS'Fri Feb 26 00:00:00 2016'
p303
F8.272374243274795
sS'Mon Mar 14 00:00:00 2016'
p304
F16.3650893601497
sS'Sun Aug  7 00:00:00 2016'
p305
F14.349086810252002
sS'Wed Feb  8 00:00:00 2017'
p306
F14.837918375122845
sS'Thu Mar 23 00:00:00 2017'
p307
F56.72049027863539
sS'Fri Sep 30 00:00:00 2016'
p308
F17.221876699120557
sS'Sat Oct 17 00:00:00 2015'
p309
F0.7544675271254374
sS'Sun Apr 23 00:00:00 2017'
p310
F66.9303272336567
sS'Mon Nov 30 00:00:00 2015'
p311
F1.208487563516492
sS'Sun Jun 25 00:00:00 2017'
p312
F380.85577812804445
sS'Wed Jan 25 00:00:00 2017'
p313
F13.826639552887466
sS'Thu Nov 19 00:00:00 2015'
p314
F1.323158757828753
sS'Fri Oct 13 00:00:00 2017'
p315
F428.2724770899551
sS'Wed May 17 00:00:00 2017'
p316
F118.65006887659943
sS'Fri Sep 25 00:00:00 2015'
p317
F1.053531289411528
sS'Tue Jun 21 00:00:00 2016'
p318
F17.41363170219823
sS'Sat Aug 13 00:00:00 2016'
p319
F15.130209522535253
sS'Sun Jun  5 00:00:00 2016'
p320
F18.99495592594826
sS'Thu Dec 17 00:00:00 2015'
p321
F1.320352474382323
sS'Sat Apr  9 00:00:00 2016'
p322
F13.10768359213279
sS'Sun Aug 30 00:00:00 2015'
p323
F1.852298473589261
sS'Tue Feb 21 00:00:00 2017'
p324
F16.60167388254747
sS'Mon Nov 21 00:00:00 2016'
p325
F12.992956137840943
sS'Wed Mar 22 00:00:00 2017'
p326
F53.78163082417646
sS'Sun May 28 00:00:00 2017'
p327
F231.63128804867227
sS'Thu Apr 13 00:00:00 2017'
p328
F65.72621706838807
sS'Fri Sep  4 00:00:00 2015'
p329
F1.837102353477922
sS'Thu May  4 00:00:00 2017'
p330
F126.99452674944153
sS'Thu Jun  9 00:00:00 2016'
p331
F19.429021485227313
sS'Fri Aug 12 00:00:00 2016'
p332
F15.650105203171575
sS'Sat Feb 11 00:00:00 2017'
p333
F14.850301997418848
sS'Thu Aug 31 00:00:00 2017'
p334
F482.2573080501381
sS'Wed Apr 19 00:00:00 2017'
p335
F64.16749442713824
sS'Sun May 15 00:00:00 2016'
p336
F13.72620099931327
sS'Fri Oct 14 00:00:00 2016'
p337
F15.638830206397623
sS'Tue Oct 24 00:00:00 2017'
p338
F384.1804551970151
sS'Fri Jun 23 00:00:00 2017'
p339
F438.51754917290566
sS'Sun Apr  2 00:00:00 2017'
p340
F63.336938434411756
sS'Tue May 17 00:00:00 2016'
p341
F16.63207083891451
sS'Fri Nov 20 00:00:00 2015'
p342
F1.280650175531953
sS'Fri Apr 29 00:00:00 2016'
p343
F9.826580618906137
sS'Mon Nov 23 00:00:00 2015'
p344
F1.313963985862353
sS'Mon Mar 21 00:00:00 2016'
p345
F15.63134747873657
sS'Fri Mar 17 00:00:00 2017'
p346
F57.185472515005664
sS'Fri Nov 25 00:00:00 2016'
p347
F12.542083540818547
sS'Thu Feb  9 00:00:00 2017'
p348
F14.319341322526881
sS'Sun Sep 24 00:00:00 2017'
p349
F352.4511878732398
sS'Fri Feb 12 00:00:00 2016'
p350
F7.708169584304498
sS'Thu Dec  1 00:00:00 2016'
p351
F11.381160860233331
sS'Mon Aug 10 00:00:00 2015'
p352
F0.9277490532546184
sS'Sun Aug 23 00:00:00 2015'
p353
F1.859268163986779
sS'Sat Jun 11 00:00:00 2016'
p354
F18.919839244502462
sS'Mon Mar 20 00:00:00 2017'
p355
F54.16397953580668
sS'Sat Oct 15 00:00:00 2016'
p356
F15.678235791309016
sS'Sat Sep 24 00:00:00 2016'
p357
F16.860550469392987
sS'Wed Nov  2 00:00:00 2016'
p358
F14.079314823890822
sS'Fri Jan 20 00:00:00 2017'
p359
F13.970783900716041
sS'Thu Apr 21 00:00:00 2016'
p360
F10.47994400859059
sS'Tue Mar 15 00:00:00 2016'
p361
F17.3816752021825
sS'Mon Jul 11 00:00:00 2016'
p362
F13.951739736442137
sS'Sat Oct  3 00:00:00 2015'
p363
F0.9747016387407803
sS'Sat Jun 18 00:00:00 2016'
p364
F15.13854019486103
sS'Fri Jan 15 00:00:00 2016'
p365
F1.768816574665625
sS'Fri Jun 30 00:00:00 2017'
p366
F370.21200001726237
sS'Tue Dec 29 00:00:00 2015'
p367
F1.191902737314921
sS'Wed Aug 12 00:00:00 2015'
p368
F1.702230794173373
sS'Sat Apr 16 00:00:00 2016'
p369
F11.07543643760444
sS'Mon Nov 16 00:00:00 2015'
p370
F1.316775168064759
sS'Tue Oct 17 00:00:00 2017'
p371
F404.9969184741181
sS'Mon Aug 21 00:00:00 2017'
p372
F405.9132857437534
sS'Wed Aug  2 00:00:00 2017'
p373
F275.03971649747075
sS'Tue Apr 25 00:00:00 2017'
p374
F67.58533294184599
sS'Sun Feb 28 00:00:00 2016'
p375
F9.036306194015397
sS'Fri Jun 16 00:00:00 2017'
p376
F470.2505780958759
sS'Sun Aug 13 00:00:00 2017'
p377
F376.5995328156087
sS'Thu Sep 17 00:00:00 2015'
p378
F1.231144073767303
sS'Sun Aug 16 00:00:00 2015'
p379
F2.00197459841909
sS'Fri Dec 16 00:00:00 2016'
p380
F10.663531260200317
sS'Wed May  3 00:00:00 2017'
p381
F108.9808491771198
sS'Fri Feb 24 00:00:00 2017'
p382
F17.045409204394065
sS'Thu Jul  6 00:00:00 2017'
p383
F352.7326522730893
sS'Sun Nov 20 00:00:00 2016'
p384
F13.00045150616938
sS'Mon Mar  6 00:00:00 2017'
p385
F25.957109549200634
sS'Sat Aug  5 00:00:00 2017'
p386
F319.2576484160877
sS'Wed Feb  3 00:00:00 2016'
p387
F3.503978543803349
sS'Tue Aug  1 00:00:00 2017'
p388
F285.2817705465344
sS'Mon Jan 25 00:00:00 2016'
p389
F3.573319531124886
sS'Mon Aug 17 00:00:00 2015'
p390
F1.632112611075317
sS'Tue May 31 00:00:00 2016'
p391
F19.36733122051379
sS'Sat Feb 20 00:00:00 2016'
p392
F6.017248603988422
sS'Wed Oct 28 00:00:00 2015'
p393
F1.42275993690189
sS'Sat Nov 21 00:00:00 2015'
p394
F1.345147335276004
sS'Sat Jul 22 00:00:00 2017'
p395
F292.1060166969515
sS'Sun Sep 17 00:00:00 2017'
p396
F312.2060184094058
sS'Fri Aug 19 00:00:00 2016'
p397
F14.050731665969703
sS'Fri Sep 18 00:00:00 2015'
p398
F1.176542679698534
sS'Thu Jul 28 00:00:00 2016'
p399
F17.152986868973592
sS'Fri Aug 11 00:00:00 2017'
p400
F388.73221543468645
sS'Fri Sep  2 00:00:00 2016'
p401
F15.962683342457511
sS'Tue Jun  6 00:00:00 2017'
p402
F354.04877038872394
sS'Sun Jan 15 00:00:00 2017'
p403
F13.073513382397287
sS'Sun Dec  6 00:00:00 2015'
p404
F1.137990085533168
sS'Sat Apr 29 00:00:00 2017'
p405
F94.06396223474685
sS'Wed Sep 16 00:00:00 2015'
p406
F1.25588502792863
sS'Thu May 18 00:00:00 2017'
p407
F130.32689677103818
sS'Thu Mar 30 00:00:00 2017'
p408
F68.43766537012337
sS'Mon Sep 26 00:00:00 2016'
p409
F16.79168568004464
sS'Tue Sep 27 00:00:00 2016'
p410
F17.050928643991764
sS'Fri Aug 14 00:00:00 2015'
p411
F2.474526040627008
sS'Fri Oct 16 00:00:00 2015'
p412
F0.7336591516203197
sS'Fri Dec 11 00:00:00 2015'
p413
F1.27625809371017
sS'Sat Nov 28 00:00:00 2015'
p414
F1.2753164688832
sS'Sat Sep 19 00:00:00 2015'
p415
F1.226864270158674
sS'Tue May  2 00:00:00 2017'
p416
F102.58723048322496
sS'Sun Feb  5 00:00:00 2017'
p417
F14.644150704744765
sS'Sun Apr 24 00:00:00 2016'
p418
F10.37420207522587
sS'Sun Oct  4 00:00:00 2015'
p419
F0.9463745742466004
sS'Sun Mar 19 00:00:00 2017'
p420
F57.25645399767377
sS'Mon Sep 21 00:00:00 2015'
p421
F1.263260036602543
sS'Tue Aug  2 00:00:00 2016'
p422
F10.960433808681389
sS'Fri Sep 22 00:00:00 2017'
p423
F330.70752339759747
sS'Sat Dec  3 00:00:00 2016'
p424
F10.576131835291818
sS'Thu Jul 27 00:00:00 2017'
p425
F254.8963308205955
sS'Mon Aug  8 00:00:00 2016'
p426
F14.688241328526638
sS'Fri Jun 17 00:00:00 2016'
p427
F20.818851793484875
sS'Fri Jan 27 00:00:00 2017'
p428
F13.926056295742201
sS'Sat Aug  6 00:00:00 2016'
p429
F14.302150459147093
sS'Mon Jan  9 00:00:00 2017'
p430
F13.985598009762578
sS'Wed Dec 28 00:00:00 2016'
p431
F10.600131504642961
sS'Wed Jun 22 00:00:00 2016'
p432
F16.93575068071869
sS'Fri Aug 25 00:00:00 2017'
p433
F414.7524889304225
sS'Mon Sep 18 00:00:00 2017'
p434
F361.247194541567
sS'Fri Jul  1 00:00:00 2016'
p435
F16.442811199798975
sS'Tue Aug 11 00:00:00 2015'
p436
F1.460389539896919
sS'Tue Sep  5 00:00:00 2017'
p437
F398.3635401962924
sS'Sun Jan 17 00:00:00 2016'
p438
F1.92999227247136
sS'Thu Jun  8 00:00:00 2017'
p439
F345.3331169898006
sS'Thu Aug 20 00:00:00 2015'
p440
F2.02317448474886
sS'Sat Sep 16 00:00:00 2017'
p441
F305.88730474695575
sS'Thu May  5 00:00:00 2016'
p442
F13.15872305381161
sS'Fri Jan 29 00:00:00 2016'
p443
F3.510416972849649
sS'Fri Apr 22 00:00:00 2016'
p444
F10.18221677122649
sS'Sun Jul 10 00:00:00 2016'
p445
F14.481021470760634
sS'Fri Feb  3 00:00:00 2017'
p446
F14.234325883936213
sS'Sun Jul 31 00:00:00 2016'
p447
F15.623181091143396
sS'Thu Feb  2 00:00:00 2017'
p448
F14.122573049130871
sS'Sat Jul 30 00:00:00 2016'
p449
F16.50396152201445
sS'Wed Jun 21 00:00:00 2017'
p450
F434.17842195424356
sS'Fri Aug 18 00:00:00 2017'
p451
F373.4343122745699
sS'Tue Jan 26 00:00:00 2016'
p452
F2.980522498612273
sS'Tue Jan 12 00:00:00 2016'
p453
F1.670555355882969
sS'Tue Jun 13 00:00:00 2017'
p454
F517.2154549552914
sS'Fri Mar 18 00:00:00 2016'
p455
F14.19869333284765
sS'Wed Oct 14 00:00:00 2015'
p456
F0.7088647995261661
sS'Mon Jan  4 00:00:00 2016'
p457
F1.335490335665247
sS'Tue Oct 20 00:00:00 2015'
p458
F0.5961518822912081
sS'Sun Oct 16 00:00:00 2016'
p459
F15.664143452594983
sS'Thu Oct  8 00:00:00 2015'
p460
F0.859539103931667
sS'Tue Sep 15 00:00:00 2015'
p461
F1.320524820843135
sS'Mon Mar 13 00:00:00 2017'
p462
F37.6009229799941
sS'Fri Oct  9 00:00:00 2015'
p463
F0.887283360955148
sS'Fri Jan  6 00:00:00 2017'
p464
F13.893892373084823
sS'Sat Sep  3 00:00:00 2016'
p465
F15.589873480113042
sS'Sat Nov 12 00:00:00 2016'
p466
F12.80193104511736
sS'Sun Aug 20 00:00:00 2017'
p467
F372.26626092362994
sS'Fri Aug 28 00:00:00 2015'
p468
F1.65745265216328
sS'Tue Dec 22 00:00:00 2015'
p469
F1.21563685450286
sS'Wed Sep 20 00:00:00 2017'
p470
F348.41704350697927
sS'Sat Feb  4 00:00:00 2017'
p471
F14.749199388054825
sS'Sun Jun 19 00:00:00 2016'
p472
F16.484919872547334
sS'Tue Nov 15 00:00:00 2016'
p473
F13.500637566420087
sS'Thu Jul 21 00:00:00 2016'
p474
F16.816714261143808
sS'Sun Nov 29 00:00:00 2015'
p475
F1.212383668601178
sS'Tue Dec 13 00:00:00 2016'
p476
F11.14328044727086
sS'Fri Apr 21 00:00:00 2017'
p477
F64.69139303995574
sS'Sat Jan 21 00:00:00 2017'
p478
F14.388801049673816
sS'Sat Apr  1 00:00:00 2017'
p479
F66.08450213176633
sS'Wed Mar 23 00:00:00 2016'
p480
F16.47080557716926
sS'Tue Mar  7 00:00:00 2017'
p481
F24.813183704130147
sS'Sun Oct 23 00:00:00 2016'
p482
F15.687459091435343
sS'Mon Feb 20 00:00:00 2017'
p483
F16.594055211517368
sS'Mon Jan 11 00:00:00 2016'
p484
F1.527715872843864
sS'Sun Nov 13 00:00:00 2016'
p485
F13.384063321826687
sS'Wed Aug 23 00:00:00 2017'
p486
F400.56786841643805
sS'Mon Aug 28 00:00:00 2017'
p487
F434.75459767855705
sS'Sat Jul  8 00:00:00 2017'
p488
F323.79656968204006
sS'Mon Jul 31 00:00:00 2017'
p489
F254.1508725896851
sS'Thu Jul  7 00:00:00 2016'
p490
F13.494423722399677
sS'Wed Oct 21 00:00:00 2015'
p491
F0.6096240210844462
sS'Tue Nov  3 00:00:00 2015'
p492
F1.395429418291921
sS'Sun Oct 25 00:00:00 2015'
p493
F0.8754706718091095
sS'Thu Apr  6 00:00:00 2017'
p494
F56.99992588108688
sS'Sun Sep 20 00:00:00 2015'
p495
F1.301607695452984
sS'Wed Jan 27 00:00:00 2016'
p496
F3.393857233340252
sS'Mon Oct  3 00:00:00 2016'
p497
F17.52441513295229
sS'Tue Jul 26 00:00:00 2016'
p498
F15.662321987928056
sS'Thu Jul 20 00:00:00 2017'
p499
F281.01069020551967
sS'Tue Jan  5 00:00:00 2016'
p500
F1.330784512798928
sS'Fri Sep  9 00:00:00 2016'
p501
F15.4155297731174
sS'Sat Apr 22 00:00:00 2017'
p502
F65.0653683589034
sS'Sat Jan  7 00:00:00 2017'
p503
F13.465294111172422
sS'Wed Feb 22 00:00:00 2017'
p504
F16.365315067228753
sS'Sun Jan 29 00:00:00 2017'
p505
F13.800550064718879
sS'Wed Jan 20 00:00:00 2016'
p506
F2.265108583702231
sS'Thu Nov 24 00:00:00 2016'
p507
F12.390838354463833
sS'Sun Sep 27 00:00:00 2015'
p508
F1.028356025659592
sS'Tue Jul 19 00:00:00 2016'
p509
F15.413842520011396
sS'Mon Sep 19 00:00:00 2016'
p510
F17.45433115815601
sS'Thu Feb 23 00:00:00 2017'
p511
F17.04948282200184
sS'Mon Aug 15 00:00:00 2016'
p512
F14.621812364339572
sS'Sun Feb 26 00:00:00 2017'
p513
F18.958673878604774
sS'Tue Apr 26 00:00:00 2016'
p514
F9.584000928478208
sS'Thu Aug  3 00:00:00 2017'
p515
F282.6560981333474
sS'Wed Feb  1 00:00:00 2017'
p516
F14.11775472054933
sS'Tue Jan 17 00:00:00 2017'
p517
F13.571612910373858
sS'Sat Jun 17 00:00:00 2017'
p518
F488.5264407441866
sS'Tue May  9 00:00:00 2017'
p519
F119.07840326669937
sS'Tue Oct  3 00:00:00 2017'
p520
F373.04380352341104
sS'Sat Nov 14 00:00:00 2015'
p521
F1.240505929081199
sS'Wed Apr 27 00:00:00 2016'
p522
F10.16355103749571
sS'Wed Jun 14 00:00:00 2017'
p523
F458.04648053219574
sS'Wed Oct 26 00:00:00 2016'
p524
F15.039668374087707
sS'Wed Feb 10 00:00:00 2016'
p525
F6.239738704504505
sS'Thu Jun 16 00:00:00 2016'
p526
F27.82711804323187
sS'Wed Dec 23 00:00:00 2015'
p527
F1.199301618742378
sS'Mon Jan  2 00:00:00 2017'
p528
F11.616880817964491
sS'Sat Sep 26 00:00:00 2015'
p529
F1.106780352964227
sS'Wed Oct  4 00:00:00 2017'
p530
F372.76192644277194
sS'Thu Oct  1 00:00:00 2015'
p531
F0.9747552719188708
sS'Wed Feb 17 00:00:00 2016'
p532
F5.213551964133423
sS'Tue Nov 24 00:00:00 2015'
p533
F1.23839230433536
sS'Mon Apr 18 00:00:00 2016'
p534
F11.56205983215518
sS'Wed Apr 20 00:00:00 2016'
p535
F10.883651993009
sS'Sun Mar 12 00:00:00 2017'
p536
F30.650740514626257
sS'Wed Jun 15 00:00:00 2016'
p537
F24.860476599642315
sS'Sat Jun 10 00:00:00 2017'
p538
F448.71433705912335
sS'Thu Apr 28 00:00:00 2016'
p539
F9.513572939946899
sS'Sun Aug 27 00:00:00 2017'
p540
F432.055588521996
sS'Fri Oct  6 00:00:00 2017'
p541
F396.07038370342434
sS'Mon Dec 28 00:00:00 2015'
p542
F1.16147394158126
sS'Mon Sep  5 00:00:00 2016'
p543
F15.488564455912924
sS'Wed Sep 28 00:00:00 2016'
p544
F17.309394790386282
sS'Mon Jul  3 00:00:00 2017'
p545
F363.6869079326654
sS'Sat May  6 00:00:00 2017'
p546
F130.0655996000689
sS'Sat Feb 13 00:00:00 2016'
p547
F7.560217873831544
sS'Mon Apr 24 00:00:00 2017'
p548
F67.50239736839362
sS'Mon Feb 15 00:00:00 2016'
p549
F7.457053910422486
sS'Sun Dec 11 00:00:00 2016'
p550
F11.039852576185993
sS'Sat Aug 29 00:00:00 2015'
p551
F1.636782973873052
sS'Sat Dec 19 00:00:00 2015'
p552
F1.267511937774812
sS'Sun May 22 00:00:00 2016'
p553
F19.71560750007681
sS'Sat Aug 26 00:00:00 2017'
p554
F415.97196732600486
sS'Thu Aug 13 00:00:00 2015'
p555
F2.478324743520978
sS'Sat Jan 23 00:00:00 2016'
p556
F2.416407652151558
sS'Mon Jun 13 00:00:00 2016'
p557
F23.771813370845997
sS'Sat Feb 27 00:00:00 2016'
p558
F8.920444665718732
sS'Thu Aug 18 00:00:00 2016'
p559
F13.955595768417455
sS'Tue Oct  4 00:00:00 2016'
p560
F17.413434657270205
sS'Sun Sep  4 00:00:00 2016'
p561
F15.405474515936605
sS'Sun Oct 22 00:00:00 2017'
p562
F378.55826806910187
sS'Thu Apr 20 00:00:00 2017'
p563
F66.53579913564232
sS'Tue Jul 25 00:00:00 2017'
p564
F260.49933907266893
sS'Tue Feb 16 00:00:00 2016'
p565
F6.149444623566832
sS'Sun Jan  3 00:00:00 2016'
p566
F1.334511749674567
sS'Fri Apr  1 00:00:00 2016'
p567
F15.14735430122856
sS'Sun Jan 22 00:00:00 2017'
p568
F14.217744409807212
sS'Sat Mar 26 00:00:00 2016'
p569
F14.60309765500724
sS'Tue Apr 19 00:00:00 2016'
p570
F11.13953051016378
sS'Sun Jul  2 00:00:00 2017'
p571
F371.98027018594394
sS'Sun Jun  4 00:00:00 2017'
p572
F332.7677695813805
sS'Wed May  4 00:00:00 2016'
p573
F12.61504643453056
sS'Tue Aug  9 00:00:00 2016'
p574
F15.891178419070842
sS'Sun Oct  2 00:00:00 2016'
p575
F17.236526750543998
sS'Tue Jul  5 00:00:00 2016'
p576
F14.13671808264197
sS'Mon Mar 27 00:00:00 2017'
p577
F64.31839911315829
sS'Wed Jan 11 00:00:00 2017'
p578
F12.988427664340358
sS'Wed Oct 19 00:00:00 2016'
p579
F15.503539757725061
sS'Mon Oct 26 00:00:00 2015'
p580
F1.027016176008017
sS'Fri Oct 20 00:00:00 2017'
p581
F386.8926522574875
sS'Tue Sep 20 00:00:00 2016'
p582
F18.937947842762718
sS'Fri May  6 00:00:00 2016'
p583
F12.59272156657967
sS'Wed Nov  9 00:00:00 2016'
p584
F13.937320887777174
sS'Wed Aug 10 00:00:00 2016'
p585
F15.736090465049386
sS'Sat Feb  6 00:00:00 2016'
p586
F3.56298078859464
sS'Wed Sep  6 00:00:00 2017'
p587
F416.1397194962702
sS'Wed Sep 14 00:00:00 2016'
p588
F15.939315128802152
sS'Tue Jul 18 00:00:00 2017'
p589
F288.78930040874735
sS'Fri Aug 21 00:00:00 2015'
p590
F1.920570439371867
sS'Tue Feb 23 00:00:00 2016'
p591
F7.785054063720524
sS'Mon Dec 19 00:00:00 2016'
p592
F10.474908695053077
sS'Thu Oct 13 00:00:00 2016'
p593
F15.804035435855281
sS'Tue Dec  1 00:00:00 2015'
p594
F1.194433782795699
sS'Tue Mar  8 00:00:00 2016'
p595
F13.17324652237883
sS'Mon Feb 22 00:00:00 2016'
p596
F7.758971418557098
sS'Tue Nov 22 00:00:00 2016'
p597
F13.257431701877026
sS'Sun May  1 00:00:00 2016'
p598
F11.60815979092238
sS'Wed Jul  6 00:00:00 2016'
p599
F13.989555448693347
sS'Mon Aug 24 00:00:00 2015'
p600
F1.745261700702748
sS'Mon Oct 31 00:00:00 2016'
p601
F14.296585834585398
sS'Mon Nov  9 00:00:00 2015'
p602
F1.413305427694545
sS'Wed Nov 30 00:00:00 2016'
p603
F11.711668110622117
sS'Mon Apr 11 00:00:00 2016'
p604
F11.41629604306288
sS'Wed Aug 19 00:00:00 2015'
p605
F1.704259724052787
sS'Tue Apr 18 00:00:00 2017'
p606
F67.19010009374337
sS'Sun Jan 10 00:00:00 2016'
p607
F1.468840283629292
sS'Wed Oct 25 00:00:00 2017'
p608
F387.36526839504415
sS'Thu Jul 14 00:00:00 2016'
p609
F14.741683780881287
sS'Sat Mar 19 00:00:00 2016'
p610
F13.72578017248554
sS'Wed Mar 30 00:00:00 2016'
p611
F15.49686665916495
sS'Thu Jan 14 00:00:00 2016'
p612
F1.656998830007846
sS'Tue May 16 00:00:00 2017'
p613
F117.26350203829917
sS'Thu Nov  5 00:00:00 2015'
p614
F1.26896409376522
sS'Mon May  8 00:00:00 2017'
p615
F119.16935806722068
sS'Thu Jun 22 00:00:00 2017'
p616
F433.6500708720737
sS'Mon Sep 28 00:00:00 2015'
p617
F0.835471162006619
sS'Wed Nov 16 00:00:00 2016'
p618
F13.385369134687654
sS'Fri Jun 10 00:00:00 2016'
p619
F18.8938107445343
sS'Fri Jan  8 00:00:00 2016'
p620
F1.429333624498533
sS'Fri Jul 28 00:00:00 2017'
p621
F241.12401674896842
sS'Wed Nov 23 00:00:00 2016'
p622
F13.2051364488866
sS'Mon May 15 00:00:00 2017'
p623
F121.97938681379652
sS'Sat Jun  3 00:00:00 2017'
p624
F302.8185904495765
sS'Tue Nov 17 00:00:00 2015'
p625
F1.399346423213488
sS'Tue Aug 29 00:00:00 2017'
p626
F461.071217899807
sS'Thu Oct 22 00:00:00 2015'
p627
F0.7841538317143611
sS'Mon May 29 00:00:00 2017'
p628
F263.5643288114477
sS'Wed Aug  3 00:00:00 2016'
p629
F13.469532671012706
sS'Thu Jan  5 00:00:00 2017'
p630
F13.784249918513998
sS'Sun Jan  1 00:00:00 2017'
p631
F11.177571451406903
sS'Thu Feb 25 00:00:00 2016'
p632
F8.205197823085449
sS'Wed Dec 30 00:00:00 2015'
p633
F1.236603496488794
sS'Tue Jun 20 00:00:00 2017'
p634
F472.33236471717015
sS'Tue Sep 19 00:00:00 2017'
p635
F350.09514647113195
sS'Sun Mar 13 00:00:00 2016'
p636
F19.72561510920139
sS'Wed Feb 24 00:00:00 2016'
p637
F8.526622814931256
sS'Fri Dec 23 00:00:00 2016'
p638
F10.042218624770584
sS'Thu Dec 29 00:00:00 2016'
p639
F11.323508852675248
sS'Sat Oct 24 00:00:00 2015'
p640
F0.7875508438374874
sS'Sun Aug  6 00:00:00 2017'
p641
F331.7943350524485
sS'Thu Mar 10 00:00:00 2016'
p642
F15.03549950842799
sS'Fri Jul  8 00:00:00 2016'
p643
F15.046644385137162
sS'Wed Jul 12 00:00:00 2017'
p644
F289.31297986225456
sS'Tue Aug 25 00:00:00 2015'
p645
F1.626636497055064
sS'Sat Jan 30 00:00:00 2016'
p646
F3.440331494057817
sS'Thu Jan 26 00:00:00 2017'
p647
F14.020606322149225
sS'Mon May  9 00:00:00 2016'
p648
F12.786444580383488
sS'Sat Nov 26 00:00:00 2016'
p649
F12.479142826873284
sS'Tue Sep 26 00:00:00 2017'
p650
F360.19886668648985
sS'Tue Jul  4 00:00:00 2017'
p651
F354.5512680140164
sS'Wed Jul 13 00:00:00 2016'
p652
F13.800543105788275
sS'Fri Dec 18 00:00:00 2015'
p653
F1.283746630287281
sS'Sun May 29 00:00:00 2016'
p654
F17.19537828011883
sS'Sun Sep 25 00:00:00 2016'
p655
F17.130547709198904
sS'Sat Sep 12 00:00:00 2015'
p656
F1.463965974409916
sS'Mon Jun 12 00:00:00 2017'
p657
F528.9410108438219
sS'Tue Feb  9 00:00:00 2016'
p658
F5.261612222748564
sS'Fri Apr 28 00:00:00 2017'
p659
F97.50394835926001
sS'Sun Nov 27 00:00:00 2016'
p660
F11.96155024017505
sS'Mon Oct  2 00:00:00 2017'
p661
F377.96522199516716
sS'Sat Jun  4 00:00:00 2016'
p662
F18.594006203829572
sS'Mon Feb  6 00:00:00 2017'
p663
F14.74837016892247
sS'Tue May 30 00:00:00 2017'
p664
F309.3794444624904
sS'Sun Dec  4 00:00:00 2016'
p665
F10.046915093520328
sS'Fri Sep 11 00:00:00 2015'
p666
F1.376970180797937
sS'Sat Aug  8 00:00:00 2015'
p667
F1.737352014172
sS'Sun Jul 24 00:00:00 2016'
p668
F17.148575686994604
sS'Mon Aug  1 00:00:00 2016'
p669
F14.567402775118692
sS'Wed Nov 11 00:00:00 2015'
p670
F1.116378702730354
sS'Tue Nov  1 00:00:00 2016'
p671
F14.095815787885945
sS'Tue Sep  8 00:00:00 2015'
p672
F1.75831135743982
sS'Fri Dec  9 00:00:00 2016'
p673
F11.412333388894451
sS'Tue Jun 14 00:00:00 2016'
p674
F25.543949726831986
sS'Mon Feb 13 00:00:00 2017'
p675
F14.767684190891325
sS'Sat Nov  7 00:00:00 2015'
p676
F1.308856372133047
sS'Tue Jul 12 00:00:00 2016'
p677
F13.915326391924319
sS'Wed Sep 21 00:00:00 2016'
p678
F17.954547286240782
sS'Wed Jan  4 00:00:00 2017'
p679
F15.081152703312618
sS'Tue Jun  7 00:00:00 2016'
p680
F19.523988677689598
sS'Sun Feb 14 00:00:00 2016'
p681
F7.272832798045662
sS'Sun Jul 30 00:00:00 2017'
p682
F246.83019580733708
sS'Thu Jul 13 00:00:00 2017'
p683
F266.9493028606959
sS'Sun Sep  6 00:00:00 2015'
p684
F1.875603369232458
sS'Wed Dec 16 00:00:00 2015'
p685
F1.369121535931439
sS'Tue Sep  6 00:00:00 2016'
p686
F15.21588776543555
sS'Thu Mar  2 00:00:00 2017'
p687
F25.082622094146622
sS'Sat Dec 10 00:00:00 2016'
p688
F10.867931898249882
sS'Mon Sep 11 00:00:00 2017'
p689
F369.3884831070191
sS'Thu May 25 00:00:00 2017'
p690
F237.16980556519948
sS'Mon Feb  1 00:00:00 2016'
p691
F3.123625377413568
sS'Thu Jan 21 00:00:00 2016'
p692
F2.206504345776369
sS'Fri Jul 15 00:00:00 2016'
p693
F14.945028782173786
sS'Sun Aug 28 00:00:00 2016'
p694
F14.445349900192143
sS'Sun Oct 18 00:00:00 2015'
p695
F0.7137996729453454
sS'Fri Dec 30 00:00:00 2016'
p696
F11.308852476501269
sS'Fri Jun  2 00:00:00 2017'
p697
F301.4603413377651
sS'Mon Jan 23 00:00:00 2017'
p698
F14.146542017106167
sS'Fri Nov 11 00:00:00 2016'
p699
F13.631983217237298
sS'Wed Sep  2 00:00:00 2015'
p700
F1.813813467666037
sS'Sat Aug 27 00:00:00 2016'
p701
F14.738812660862134
sS'Tue Aug 18 00:00:00 2015'
p702
F1.747448568255654
sS'Mon Jun 26 00:00:00 2017'
p703
F341.5230567696732
sS'Tue Jan  3 00:00:00 2017'
p704
F13.320793800625589
sS'Tue Dec 20 00:00:00 2016'
p705
F10.497281206277409
sS'Tue Oct 13 00:00:00 2015'
p706
F0.8351165589635747
sS'Tue Mar 21 00:00:00 2017'
p707
F55.228108334020554
sS'Fri Oct 28 00:00:00 2016'
p708
F15.164170861211579
sS'Sat Oct 10 00:00:00 2015'
p709
F0.8586870302867964
sS'Thu Mar 24 00:00:00 2016'
p710
F14.78511490741538
sS'Wed Aug 16 00:00:00 2017'
p711
F378.6565346177741
sS'Wed Jul 27 00:00:00 2016'
p712
F17.30081453435876
sS'Sat Jul 29 00:00:00 2017'
p713
F257.3391738585542
sS'Wed Jun  1 00:00:00 2016'
p714
F19.112142908854924
sS'Wed May 25 00:00:00 2016'
p715
F17.39054457216053
sS'Sat Jun 24 00:00:00 2017'
p716
F409.6317728648308
sS'Wed Jan 13 00:00:00 2016'
p717
F1.62387996826206
sS'Fri Mar 31 00:00:00 2017'
p718
F65.49407891112456
sS'Tue Dec  6 00:00:00 2016'
p719
F10.228866523846008
sS'Mon Oct 10 00:00:00 2016'
p720
F15.553879780509467
sS'Mon Jul 18 00:00:00 2016'
p721
F14.545358506920648
sS'Sun Nov  8 00:00:00 2015'
p722
F1.465674203636282
sS'Thu Aug 27 00:00:00 2015'
p723
F1.580827833279782
sS'Thu Mar  3 00:00:00 2016'
p724
F12.9249779450554
sS'Sat Sep 10 00:00:00 2016'
p725
F16.06521238529844
sS'Sun Jul 16 00:00:00 2017'
p726
F200.01180849547072
sS'Tue May  3 00:00:00 2016'
p727
F12.3885226702213
sS'Thu Jun  1 00:00:00 2017'
p728
F300.8779217222559
sS'Mon Sep  7 00:00:00 2015'
p729
F1.812715647106174
sS'Mon Nov 28 00:00:00 2016'
p730
F11.63068613083773
sS'Wed May 10 00:00:00 2017'
p731
F120.16218525067679
sS'Thu Dec 10 00:00:00 2015'
p732
F1.165572031243075
sS'Thu Sep  1 00:00:00 2016'
p733
F15.88776409369539
sS'Tue Feb 28 00:00:00 2017'
p734
F20.52114842295823
sS'Sat Jul  2 00:00:00 2016'
p735
F16.006249760357445
sS'Sun May  8 00:00:00 2016'
p736
F12.92518225431982
sS'Wed May 18 00:00:00 2016'
p737
F18.43408011360394
sS'Mon Feb 29 00:00:00 2016'
p738
F8.837021869422594
sS'Sat May 21 00:00:00 2016'
p739
F19.38247370964665
sS'Thu Sep 21 00:00:00 2017'
p740
F324.5741185202304
sS'Wed May 31 00:00:00 2017'
p741
F311.623992828901
sS'Thu May 12 00:00:00 2016'
p742
F13.78136676912882
sS'Sun Jul 17 00:00:00 2016'
p743
F14.8979787496078
sS'Wed Apr 13 00:00:00 2016'
p744
F10.465109000523
sS'Wed Sep 27 00:00:00 2017'
p745
F384.8544312465736
sS'Fri Sep 29 00:00:00 2017'
p746
F367.86846280999487
sS'Sat Apr 15 00:00:00 2017'
p747
F64.84509795635437
sS'Tue May 10 00:00:00 2016'
p748
F12.68575447353743
sS'Tue Mar 22 00:00:00 2016'
p749
F14.85513498782118
sS'Fri Feb  5 00:00:00 2016'
p750
F3.581308651748156
sS'Sun Jun 18 00:00:00 2017'
p751
F471.6375060997571
sS'Mon Dec  7 00:00:00 2015'
p752
F1.102306357365159
sS'Thu May 26 00:00:00 2016'
p753
F17.305043089424277
sS'Thu Aug  4 00:00:00 2016'
p754
F14.460579044159074
sS'Fri Mar 10 00:00:00 2017'
p755
F25.527720539942397
sS'Mon Aug 29 00:00:00 2016'
p756
F14.397668102775475
sS'Wed Sep  7 00:00:00 2016'
p757
F15.045364683769664
sS'Thu Nov 12 00:00:00 2015'
p758
F1.263079692025406
sS'Sun Nov 15 00:00:00 2015'
p759
F1.27996391597015
sS'Wed Aug 30 00:00:00 2017'
p760
F479.25474664747503
sS'Sun Apr  9 00:00:00 2017'
p761
F58.92092350515513
sS'Thu Apr 14 00:00:00 2016'
p762
F10.961845557714263
sS'Fri Mar  3 00:00:00 2017'
p763
F25.782427829443286
sS'Sun Jul  3 00:00:00 2016'
p764
F15.837244381107844
sS'Wed Dec 14 00:00:00 2016'
p765
F11.087800912518752
sS'Sun Apr 10 00:00:00 2016'
p766
F11.66469270646529
sS'Thu Aug 11 00:00:00 2016'
p767
F15.563830923314875
sS'Sun Sep 10 00:00:00 2017'
p768
F363.6071546773398
sS'Wed Jun 28 00:00:00 2017'
p769
F415.44339989969006
sS'Tue Oct 11 00:00:00 2016'
p770
F15.568737343064868
sS'Fri Jun 24 00:00:00 2016'
p771
F18.649793467011257
sS'Tue Feb 14 00:00:00 2017'
p772
F16.90907783699367
sS'Sun Apr 17 00:00:00 2016'
p773
F12.16320562918311
sS'Sat Oct 21 00:00:00 2017'
p774
F384.71582525798624
sS'Sun Jun 11 00:00:00 2017'
p775
F452.85201436091955
sS'Thu Aug 10 00:00:00 2017'
p776
F377.4118503373438
sS'Fri Sep 15 00:00:00 2017'
p777
F308.52910760212535
sS'Thu Feb 18 00:00:00 2016'
p778
F6.149396229972956
sS'Wed Dec  9 00:00:00 2015'
p779
F1.094808116327109
sS'Wed Aug 24 00:00:00 2016'
p780
F14.468054094386956
sS'Sat Sep 23 00:00:00 2017'
p781
F355.5007371906123
sS'Mon Aug 14 00:00:00 2017'
p782
F377.2867774112945
sS'Wed Dec  2 00:00:00 2015'
p783
F1.1266944985371
sS'Sat Sep 30 00:00:00 2017'
p784
F379.5568414319702
sS'Tue May 23 00:00:00 2017'
p785
F228.78977267785794
sS'Wed Mar  8 00:00:00 2017'
p786
F22.264778836098895
sS'Thu Aug 24 00:00:00 2017'
p787
F407.1349873832494
sS'Mon Oct 16 00:00:00 2017'
p788
F423.30799386426855
sS'Thu Nov 26 00:00:00 2015'
p789
F1.241021711804247
sS'Sat Aug 15 00:00:00 2015'
p790
F2.266004067254526
sS'Wed Sep  9 00:00:00 2015'
p791
F1.728332347736752
sS'Fri Mar  4 00:00:00 2016'
p792
F13.50607079165038
sS'Mon Oct  9 00:00:00 2017'
p793
F381.4223651343092
sS'Sat Dec 26 00:00:00 2015'
p794
F1.171556919862266
sS'Sat Apr 30 00:00:00 2016'
p795
F11.691046261249818
sS'Sun Oct  1 00:00:00 2017'
p796
F382.14691685736005
sS'Thu Aug 25 00:00:00 2016'
p797
F14.87516778058073
sS'Sun Dec 13 00:00:00 2015'
p798
F1.332357499680144
sS'Wed Mar  2 00:00:00 2016'
p799
F11.51217241244753
sS'Sun May  7 00:00:00 2017'
p800
F121.10078916195114
sS'Tue Feb  7 00:00:00 2017'
p801
F14.998676003393326
sS'Sun Jan  8 00:00:00 2017'
p802
F14.079924217670447
sS'Mon Sep  4 00:00:00 2017'
p803
F377.2404186470735
sS'Mon Oct 19 00:00:00 2015'
p804
F0.6719156663164442
sS'Thu Dec 24 00:00:00 2015'
p805
F1.184835923167823
sS'Sat Aug 20 00:00:00 2016'
p806
F14.768064255514421
sS'Thu Mar 31 00:00:00 2016'
p807
F14.8100366884469
sS'Sun Nov 22 00:00:00 2015'
p808
F1.334499532729147
sS'Thu Oct 15 00:00:00 2015'
p809
F0.7661957107411742
sS'Wed Mar 29 00:00:00 2017'
p810
F68.93922166293086
sS'Fri Mar 11 00:00:00 2016'
p811
F14.8274403034005
sS'Sat Oct 22 00:00:00 2016'
p812
F15.831159678395903
ssS'BTC'
p813
(dp814
S'Tue Mar 14 00:00:00 2017'
p815
F1649.0112836654944
sS'Tue May 20 00:00:00 2014'
p816
F481.411
sS'Sat Oct  5 00:00:00 2013'
p817
F128.4087
sS'Sun Jun 26 00:00:00 2016'
p818
F846.1129999999999
sS'Thu Jan 30 00:00:00 2014'
p819
F962.3731
sS'Mon Oct 24 00:00:00 2016'
p820
F853.8010000000002
sS'Fri Aug 15 00:00:00 2014'
p821
F528.69478719281
sS'Sun Mar 27 00:00:00 2016'
p822
F566.5100000000001
sS'Thu Mar 26 00:00:00 2015'
p823
F316.2147
sS'Fri Jan  1 00:00:00 2016'
p824
F595.3702
sS'Sat Jan  9 00:00:00 2016'
p825
F645.4326000000001
sS'Fri Aug 14 00:00:00 2015'
p826
F359.2964999999999
sS'Sat Jun 28 00:00:00 2014'
p827
F628.0097
sS'Sat Aug 30 00:00:00 2014'
p828
F536.9801000000001
sS'Fri Jul 21 00:00:00 2017'
p829
F3359.54885597673
sS'Wed Jul  1 00:00:00 2015'
p830
F336.9154999999999
sS'Thu Feb 13 00:00:00 2014'
p831
F666.6865
sS'Sat Oct  8 00:00:00 2016'
p832
F812.2369999999996
sS'Sun Sep  3 00:00:00 2017'
p833
F5813.73096018761
sS'Sun Jul 26 00:00:00 2015'
p834
F400.9303023591001
sS'Sat Mar 26 00:00:00 2016'
p835
F554.9512000000001
sS'Sat Feb 25 00:00:00 2017'
p836
F1497.277104211458
sS'Mon Mar 28 00:00:00 2016'
p837
F560.3728
sS'Wed Jun 19 00:00:00 2013'
p838
F114.2174
sS'Wed Apr  2 00:00:00 2014'
p839
F494.7318
sS'Sat Feb 21 00:00:00 2015'
p840
F311.2751
sS'Fri Sep 22 00:00:00 2017'
p841
F4546.56777313073
sS'Thu Feb 26 00:00:00 2015'
p842
F302.849093274111
sS'Sun Jun 29 00:00:00 2014'
p843
F635.3107
sS'Sun Jan  5 00:00:00 2014'
p844
F1049.5406
sS'Thu Oct  6 00:00:00 2016'
p845
F805.7684
sS'Wed Oct 26 00:00:00 2016'
p846
F880.9062
sS'Sun Oct  2 00:00:00 2016'
p847
F797.1311999999999
sS'Thu Nov 10 00:00:00 2016'
p848
F937.3369413338608
sS'Fri Apr 14 00:00:00 2017'
p849
F1561.3435
sS'Wed May 28 00:00:00 2014'
p850
F481.411
sS'Sat Oct 21 00:00:00 2017'
p851
F7732.81422312111
sS'Tue Jun 13 00:00:00 2017'
p852
F3629.2292
sS'Mon Mar  7 00:00:00 2016'
p853
F554.0708
sS'Sat Sep 17 00:00:00 2016'
p854
F807.7217
sS'Sat Mar 25 00:00:00 2017'
p855
F1266.0706083973105
sS'Thu Dec 19 00:00:00 2013'
p856
F788.2277
sS'Thu Sep 24 00:00:00 2015'
p857
F333.5221000000001
sS'Tue Mar 10 00:00:00 2015'
p858
F380.4392
sS'Sat Oct 15 00:00:00 2016'
p859
F836.3877000000001
sS'Sat Sep 21 00:00:00 2013'
p860
F130.4781
sS'Fri Jul 18 00:00:00 2014'
p861
F667.5121999999997
sS'Tue Aug 15 00:00:00 2017'
p862
F5304.90369683495
sS'Mon Oct 26 00:00:00 2015'
p863
F394.1479
sS'Wed Dec 10 00:00:00 2014'
p864
F417.1301459295981
sS'Wed Feb  4 00:00:00 2015'
p865
F290.4929
sS'Tue Jan 24 00:00:00 2017'
p866
F1168.1906000000001
sS'Thu Feb 16 00:00:00 2017'
p867
F1345.0741999999998
sS'Fri Feb 19 00:00:00 2016'
p868
F586.6475999999999
sS'Thu May 28 00:00:00 2015'
p869
F310.1703000000001
sS'Sun Jul 12 00:00:00 2015'
p870
F417.4992282142838
sS'Sat Dec 13 00:00:00 2014'
p871
F421.2406999999999
sS'Thu Jan 15 00:00:00 2015'
p872
F256.9117
sS'Thu Mar 23 00:00:00 2017'
p873
F1348.890170873482
sS'Wed Jul 16 00:00:00 2014'
p874
F655.8277999999999
sS'Mon Feb  8 00:00:00 2016'
p875
F523.9171
sS'Fri Jan 24 00:00:00 2014'
p876
F950.2387
sS'Thu Jun 30 00:00:00 2016'
p877
F901.5437000000001
sS'Thu Aug 14 00:00:00 2014'
p878
F540.6909999999998
sS'Wed Jun 25 00:00:00 2014'
p879
F597.7431999999999
sS'Tue Nov  8 00:00:00 2016'
p880
F914.9139999999999
sS'Fri Mar 31 00:00:00 2017'
p881
F1413.4059666374721
sS'Tue Feb  4 00:00:00 2014'
p882
F944.5054
sS'Sat Aug 22 00:00:00 2015'
p883
F312.9431000000001
sS'Thu Jun 20 00:00:00 2013'
p884
F119.2551
sS'Fri Jul 17 00:00:00 2015'
p885
F377.3865000000001
sS'Tue Jan 31 00:00:00 2017'
p886
F1278.3459000000005
sS'Thu Sep 10 00:00:00 2015'
p887
F337.4176000000001
sS'Wed Aug 13 00:00:00 2014'
p888
F584.2985
sS'Sun May 19 00:00:00 2013'
p889
F125.4781
sS'Sat Jan 14 00:00:00 2017'
p890
F1091.0101
sS'Thu Jun  2 00:00:00 2016'
p891
F745.9282000000001
sS'Wed May 27 00:00:00 2015'
p892
F306.8783000000001
sS'Mon Oct 12 00:00:00 2015'
p893
F333.7486
sS'Fri Mar 25 00:00:00 2016'
p894
F553.6807000000001
sS'Sun Nov  6 00:00:00 2016'
p895
F928.6423000000001
sS'Thu Feb  4 00:00:00 2016'
p896
F539.7744
sS'Thu Aug 22 00:00:00 2013'
p897
F122.1637
sS'Fri May 30 00:00:00 2014'
p898
F481.411
sS'Sun Oct  8 00:00:00 2017'
p899
F5865.6130632238
sS'Sat Jul  9 00:00:00 2016'
p900
F863.5504092680284
sS'Sun Apr 26 00:00:00 2015'
p901
F279.1958
sS'Tue Apr  1 00:00:00 2014'
p902
F494.7318
sS'Tue Aug  6 00:00:00 2013'
p903
F108.8823
sS'Tue May 13 00:00:00 2014'
p904
F481.411
sS'Wed Jul 30 00:00:00 2014'
p905
F600.9194999999997
sS'Sat May 28 00:00:00 2016'
p906
F735.9939999999998
sS'Sat Oct 31 00:00:00 2015'
p907
F437.525
sS'Mon Dec 12 00:00:00 2016'
p908
F1038.1174714522158
sS'Fri Oct 23 00:00:00 2015'
p909
F384.2201
sS'Tue Sep 29 00:00:00 2015'
p910
F339.2334
sS'Mon Jan 27 00:00:00 2014'
p911
F932.0555
sS'Wed Nov 19 00:00:00 2014'
p912
F437.3088
sS'Fri Nov 15 00:00:00 2013'
p913
F436.7548
sS'Mon May 25 00:00:00 2015'
p914
F303.3356
sS'Thu Aug  6 00:00:00 2015'
p915
F378.6301
sS'Thu Dec 17 00:00:00 2015'
p916
F641.0201000000001
sS'Mon Dec  2 00:00:00 2013'
p917
F1140.2851
sS'Sun Oct 30 00:00:00 2016'
p918
F917.4471317756677
sS'Fri Apr  3 00:00:00 2015'
p919
F332.2259999999999
sS'Wed Jan  6 00:00:00 2016'
p920
F610.0930999999998
sS'Wed Sep 13 00:00:00 2017'
p921
F4865.5829224146
sS'Sat Mar  5 00:00:00 2016'
p922
F533.9451000000003
sS'Tue Aug 23 00:00:00 2016'
p923
F764.2582
sS'Sun Aug 18 00:00:00 2013'
p924
F107.6094
sS'Sun Apr 12 00:00:00 2015'
p925
F307.2364999999999
sS'Fri May 24 00:00:00 2013'
p926
F136.8617
sS'Thu Jul  9 00:00:00 2015'
p927
F360.6250000000001
sS'Wed Oct 28 00:00:00 2015'
p928
F427.5513000000001
sS'Mon Dec 26 00:00:00 2016'
p929
F1256.0442999999998
sS'Mon Jul 25 00:00:00 2016'
p930
F876.0349345651208
sS'Tue Apr 12 00:00:00 2016'
p931
F554.8104999999999
sS'Sun Jun 14 00:00:00 2015'
p932
F302.0887
sS'Sat Jul 12 00:00:00 2014'
p933
F674.7165781015866
sS'Fri Aug 30 00:00:00 2013'
p934
F138.3439
sS'Tue Apr 15 00:00:00 2014'
p935
F481.411
sS'Tue Sep  5 00:00:00 2017'
p936
F5554.92958773427
sS'Mon Dec 22 00:00:00 2014'
p937
F405.6754000000001
sS'Wed Apr  6 00:00:00 2016'
p938
F554.6851
sS'Sun Jun 22 00:00:00 2014'
p939
F638.6832
sS'Sat May 13 00:00:00 2017'
p940
F2372.6535
sS'Sat May 27 00:00:00 2017'
p941
F2795.541
sS'Mon Nov 14 00:00:00 2016'
p942
F933.6635
sS'Thu May  8 00:00:00 2014'
p943
F481.411
sS'Fri Jul  3 00:00:00 2015'
p944
F339.3715
sS'Tue May 21 00:00:00 2013'
p945
F125.3657
sS'Sat Jun  8 00:00:00 2013'
p946
F113.5613
sS'Thu Dec 22 00:00:00 2016'
p947
F1191.3239999999996
sS'Wed Oct  7 00:00:00 2015'
p948
F337.4885
sS'Fri Dec 25 00:00:00 2015'
p949
F626.0961000000001
sS'Tue Sep 13 00:00:00 2016'
p950
F813.25
sS'Sun Feb  8 00:00:00 2015'
p951
F286.9998
sS'Thu Mar  5 00:00:00 2015'
p952
F353.1864
sS'Fri Jul 25 00:00:00 2014'
p953
F637.4095999999998
sS'Sun Sep 11 00:00:00 2016'
p954
F803.2689118388648
sS'Mon May 12 00:00:00 2014'
p955
F481.411
sS'Sat Apr  5 00:00:00 2014'
p956
F494.7318
sS'Sun Dec  7 00:00:00 2014'
p957
F448.6804000000001
sS'Mon Jul 22 00:00:00 2013'
p958
F93.6639
sS'Fri Aug 22 00:00:00 2014'
p959
F553.6637000000001
sS'Wed Apr 26 00:00:00 2017'
p960
F1721.9477
sS'Wed May 14 00:00:00 2014'
p961
F481.411
sS'Sat Oct  7 00:00:00 2017'
p962
F5668.57307279687
sS'Wed Jul  5 00:00:00 2017'
p963
F3427.11937764971
sS'Sat Mar  7 00:00:00 2015'
p964
F357.1532126034447
sS'Sun Jan 24 00:00:00 2016'
p965
F575.3628000000001
sS'Fri Apr  7 00:00:00 2017'
p966
F1586.3569599631974
sS'Sun Jun  2 00:00:00 2013'
p967
F128.0558
sS'Wed Dec 11 00:00:00 2013'
p968
F977.05
sS'Mon Feb 10 00:00:00 2014'
p969
F759.9084
sS'Tue Jun 27 00:00:00 2017'
p970
F3336.38885817038
sS'Sat Mar  8 00:00:00 2014'
p971
F678.3907
sS'Thu Sep  5 00:00:00 2013'
p972
F132.0324
sS'Sat Dec  5 00:00:00 2015'
p973
F532.2773
sS'Mon Apr 10 00:00:00 2017'
p974
F1611.3808
sS'Tue Oct 14 00:00:00 2014'
p975
F457.2642
sS'Tue Jun 11 00:00:00 2013'
p976
F115.3244
sS'Thu Nov  3 00:00:00 2016'
p977
F891.8261000000005
sS'Mon Nov 11 00:00:00 2013'
p978
F355.4638
sS'Mon Jun  3 00:00:00 2013'
p979
F125.9791
sS'Wed Oct 29 00:00:00 2014'
p980
F378.7850000000001
sS'Sat May 16 00:00:00 2015'
p981
F293.6585999999999
sS'Thu Oct 10 00:00:00 2013'
p982
F133.0194
sS'Mon Mar 14 00:00:00 2016'
p983
F552.06
sS'Wed May  1 00:00:00 2013'
p984
F112.481
sS'Wed Mar 12 00:00:00 2014'
p985
F702.1772
sS'Wed Sep  3 00:00:00 2014'
p986
F508.1731
sS'Tue Jan 20 00:00:00 2015'
p987
F257.7966000000001
sS'Sun Aug 30 00:00:00 2015'
p988
F319.4678
sS'Wed Jun  5 00:00:00 2013'
p989
F126.3133
sS'Sun May 28 00:00:00 2017'
p990
F2983.0611
sS'Fri Sep  4 00:00:00 2015'
p991
F332.903
sS'Tue May 17 00:00:00 2016'
p992
F618.9545
sS'Fri Mar  6 00:00:00 2015'
p993
F353.0066
sS'Sat Nov 16 00:00:00 2013'
p994
F457.7008
sS'Fri Feb 12 00:00:00 2016'
p995
F538.7617999999999
sS'Fri Mar 17 00:00:00 2017'
p996
F1393.763262820054
sS'Mon Aug 10 00:00:00 2015'
p997
F355.6421
sS'Mon Mar 20 00:00:00 2017'
p998
F1340.8841153131532
sS'Tue Feb 17 00:00:00 2015'
p999
F310.2006
sS'Sun Oct 13 00:00:00 2013'
p1000
F138.0412
sS'Wed Nov  2 00:00:00 2016'
p1001
F958.5704000000001
sS'Tue Mar 15 00:00:00 2016'
p1002
F557.1523
sS'Wed Jan 29 00:00:00 2014'
p1003
F958.1437
sS'Wed Jul 23 00:00:00 2014'
p1004
F654.741
sS'Mon Aug 21 00:00:00 2017'
p1005
F4957.65382737185
sS'Mon May 19 00:00:00 2014'
p1006
F481.411
sS'Mon Jan 11 00:00:00 2016'
p1007
F640.9027999999998
sS'Sun Aug 16 00:00:00 2015'
p1008
F349.545
sS'Wed Oct 18 00:00:00 2017'
p1009
F7129.11950120343
sS'Mon Jun 17 00:00:00 2013'
p1010
F106.4325
sS'Thu Jul  6 00:00:00 2017'
p1011
F3445.52705675831
sS'Mon Mar  6 00:00:00 2017'
p1012
F1690.3661
sS'Tue Aug  1 00:00:00 2017'
p1013
F3439.45812794382
sS'Mon Jan 25 00:00:00 2016'
p1014
F564.9667
sS'Mon Aug 17 00:00:00 2015'
p1015
F348.506
sS'Wed Apr 29 00:00:00 2015'
p1016
F282.5797000000001
sS'Tue May 31 00:00:00 2016'
p1017
F734.6516000000001
sS'Sat Nov 21 00:00:00 2015'
p1018
F449.2596
sS'Mon Oct 13 00:00:00 2014'
p1019
F442.3561999999999
sS'Thu Jul 23 00:00:00 2015'
p1020
F374.6144
sS'Mon Jul 11 00:00:00 2016'
p1021
F861.1765
sS'Sat Apr 29 00:00:00 2017'
p1022
F1772.6715
sS'Tue Sep 27 00:00:00 2016'
p1023
F787.9552
sS'Fri Nov 22 00:00:00 2013'
p1024
F814.5922
sS'Mon Sep  7 00:00:00 2015'
p1025
F347.0430000000001
sS'Sat Sep 19 00:00:00 2015'
p1026
F321.6639
sS'Sun Feb  5 00:00:00 2017'
p1027
F1324.648951798146
sS'Sun Apr 24 00:00:00 2016'
p1028
F596.7628
sS'Tue Jul  1 00:00:00 2014'
p1029
F669.4541
sS'Mon Aug 19 00:00:00 2013'
p1030
F111.3646
sS'Fri Nov 14 00:00:00 2014'
p1031
F451.7251
sS'Fri Aug  2 00:00:00 2013'
p1032
F108.6853
sS'Thu Dec 18 00:00:00 2014'
p1033
F378.9578
sS'Sun Mar 26 00:00:00 2017'
p1034
F1251.040537991102
sS'Thu Mar 27 00:00:00 2014'
p1035
F516.4347
sS'Fri Aug 25 00:00:00 2017'
p1036
F5294.1697005219
sS'Wed Nov  6 00:00:00 2013'
p1037
F266.3404
sS'Tue Apr 14 00:00:00 2015'
p1038
F285.9698
sS'Tue Oct 18 00:00:00 2016'
p1039
F828.3903000000001
sS'Fri Jan 29 00:00:00 2016'
p1040
F535.0082
sS'Sun Oct  6 00:00:00 2013'
p1041
F129.0116
sS'Tue May  5 00:00:00 2015'
p1042
F297.5593
sS'Fri Feb  3 00:00:00 2017'
p1043
F1321.4989
sS'Tue Dec  9 00:00:00 2014'
p1044
F423.1444999999999
sS'Wed Jul 29 00:00:00 2015'
p1045
F395.6049533219574
sS'Wed Oct 14 00:00:00 2015'
p1046
F346.0125
sS'Wed Jun 17 00:00:00 2015'
p1047
F320.1567
sS'Tue Sep 15 00:00:00 2015'
p1048
F322.3580000000001
sS'Sun Aug 17 00:00:00 2014'
p1049
F530.9626000000001
sS'Fri Oct  9 00:00:00 2015'
p1050
F332.9587
sS'Sun Aug 20 00:00:00 2017'
p1051
F5046.29353407391
sS'Sun Dec 28 00:00:00 2014'
p1052
F389.8048
sS'Thu Jul 24 00:00:00 2014'
p1053
F636.8918999999999
sS'Wed Feb 24 00:00:00 2016'
p1054
F588.2184000000001
sS'Tue Jan 14 00:00:00 2014'
p1055
F951.1477
sS'Fri Apr 21 00:00:00 2017'
p1056
F1663.6066
sS'Fri Sep 26 00:00:00 2014'
p1057
F459.6207999999999
sS'Tue Mar  7 00:00:00 2017'
p1058
F1625.0707255815198
sS'Tue Apr 25 00:00:00 2017'
p1059
F1674.6523
sS'Thu Apr 27 00:00:00 2017'
p1060
F1782.5755
sS'Tue Dec 31 00:00:00 2013'
p1061
F855.0585
sS'Sun Oct 25 00:00:00 2015'
p1062
F394.4839
sS'Sat Jan  3 00:00:00 2015'
p1063
F354.2081
sS'Wed Jan 27 00:00:00 2016'
p1064
F561.4784999999999
sS'Sat Sep 13 00:00:00 2014'
p1065
F526.6772999999997
sS'Sat Jan  7 00:00:00 2017'
p1066
F1233.6606000000002
sS'Sun May 12 00:00:00 2013'
p1067
F114.5956
sS'Sun Sep 27 00:00:00 2015'
p1068
F331.9251
sS'Thu Feb 23 00:00:00 2017'
p1069
F1536.5437854699717
sS'Tue Jan 21 00:00:00 2014'
p1070
F992.592
sS'Wed Feb  1 00:00:00 2017'
p1071
F1301.5829659255965
sS'Tue Jul 29 00:00:00 2014'
p1072
F619.7910000000002
sS'Wed Apr 27 00:00:00 2016'
p1073
F585.2187000000001
sS'Thu May 15 00:00:00 2014'
p1074
F481.411
sS'Wed Feb 17 00:00:00 2016'
p1075
F580.4636999999999
sS'Thu Feb  5 00:00:00 2015'
p1076
F277.9146
sS'Sat Jun 15 00:00:00 2013'
p1077
F104.2001
sS'Wed Jun 15 00:00:00 2016'
p1078
F935.5168000000003
sS'Thu Jun 23 00:00:00 2016'
p1079
F819.501371317747
sS'Thu Apr 28 00:00:00 2016'
p1080
F589.6677999999999
sS'Fri Dec  6 00:00:00 2013'
p1081
F916.3071
sS'Mon Jul  8 00:00:00 2013'
p1082
F82.2678
sS'Mon May 11 00:00:00 2015'
p1083
F306.5169
sS'Sun Apr  6 00:00:00 2014'
p1084
F494.7318
sS'Sat Dec 19 00:00:00 2015'
p1085
F643.8396
sS'Sun May 22 00:00:00 2016'
p1086
F606.9726000000003
sS'Sat Jan 18 00:00:00 2014'
p1087
F960.9479
sS'Fri Nov 18 00:00:00 2016'
p1088
F1019.6185
sS'Tue Dec  2 00:00:00 2014'
p1089
F451.518
sS'Sun Apr 28 00:00:00 2013'
p1090
F130.7952
sS'Sat Mar 29 00:00:00 2014'
p1091
F533.2714
sS'Sun Jun 28 00:00:00 2015'
p1092
F325.8971
sS'Tue Sep 23 00:00:00 2014'
p1093
F490.1167999999998
sS'Sun Jan  3 00:00:00 2016'
p1094
F590.5226
sS'Fri Sep  6 00:00:00 2013'
p1095
F126.7753
sS'Mon Sep  1 00:00:00 2014'
p1096
F509.7878000000001
sS'Thu Apr 16 00:00:00 2015'
p1097
F292.719
sS'Fri Oct 24 00:00:00 2014'
p1098
F403.0106
sS'Wed Sep 10 00:00:00 2014'
p1099
F521.4322999999999
sS'Mon Jun 29 00:00:00 2015'
p1100
F333.937263007782
sS'Thu Oct  5 00:00:00 2017'
p1101
F5508.28639939277
sS'Thu Dec  8 00:00:00 2016'
p1102
F1030.3944
sS'Wed Sep 14 00:00:00 2016'
p1103
F814.1261999999999
sS'Fri Aug  1 00:00:00 2014'
p1104
F637.7236147790682
sS'Fri Aug 21 00:00:00 2015'
p1105
F317.2908
sS'Thu Jun 27 00:00:00 2013'
p1106
F109.584
sS'Thu Oct 13 00:00:00 2016'
p1107
F838.5502486173875
sS'Thu Sep 12 00:00:00 2013'
p1108
F135.787
sS'Tue May 19 00:00:00 2015'
p1109
F292.9523
sS'Tue Nov 22 00:00:00 2016'
p1110
F1010.7720999999998
sS'Sun May  1 00:00:00 2016'
p1111
F594.8244999999998
sS'Thu Oct 31 00:00:00 2013'
p1112
F209.4737
sS'Fri Jul 19 00:00:00 2013'
p1113
F93.321
sS'Mon Jul  4 00:00:00 2016'
p1114
F900.4998270302602
sS'Thu Sep  4 00:00:00 2014'
p1115
F524.0195
sS'Mon Jan  6 00:00:00 2014'
p1116
F1061.4048
sS'Wed Jan 21 00:00:00 2015'
p1117
F276.6213000000001
sS'Sat Sep 20 00:00:00 2014'
p1118
F457.6689999999999
sS'Tue Apr  4 00:00:00 2017'
p1119
F1507.218004890651
sS'Thu Jan 14 00:00:00 2016'
p1120
F614.5403
sS'Wed Aug  2 00:00:00 2017'
p1121
F3387.30558534122
sS'Thu Feb 19 00:00:00 2015'
p1122
F308.3499
sS'Mon Sep 28 00:00:00 2015'
p1123
F342.8629
sS'Wed Nov 16 00:00:00 2016'
p1124
F989.2117408432811
sS'Fri Jan  8 00:00:00 2016'
p1125
F652.8015
sS'Sun Jun  9 00:00:00 2013'
p1126
F105.7146
sS'Thu Jan  1 00:00:00 2015'
p1127
F384.2502000000001
sS'Sat Jun  3 00:00:00 2017'
p1128
F3442.7375
sS'Tue Aug 29 00:00:00 2017'
p1129
F5523.23667590374
sS'Mon Jun 15 00:00:00 2015'
p1130
F305.6000000000001
sS'Fri May 22 00:00:00 2015'
p1131
F307.5248
sS'Tue Jun 20 00:00:00 2017'
p1132
F3664.37518200806
sS'Thu Jul 21 00:00:00 2016'
p1133
F887.6174089875287
sS'Sat Jun 10 00:00:00 2017'
p1134
F3902.0372
sS'Wed May 13 00:00:00 2015'
p1135
F291.1772
sS'Wed Oct 30 00:00:00 2013'
p1136
F205.2847
sS'Wed May 29 00:00:00 2013'
p1137
F137.423
sS'Mon Sep  9 00:00:00 2013'
p1138
F130.0503
sS'Tue Feb 11 00:00:00 2014'
p1139
F741.0794
sS'Sun May 29 00:00:00 2016'
p1140
F728.1515999999999
sS'Mon Jun 12 00:00:00 2017'
p1141
F3586.0797
sS'Mon May 15 00:00:00 2017'
p1142
F2286.005
sS'Sat Jun  4 00:00:00 2016'
p1143
F778.5529999999998
sS'Mon Feb  6 00:00:00 2017'
p1144
F1337.848816200686
sS'Sat May 18 00:00:00 2013'
p1145
F126.6108
sS'Mon Jul 21 00:00:00 2014'
p1146
F661.6280000000002
sS'Wed Feb 19 00:00:00 2014'
p1147
F686.4426
sS'Mon Feb 17 00:00:00 2014'
p1148
F687.8447
sS'Tue Nov  1 00:00:00 2016'
p1149
F952.4240999999998
sS'Tue Jun 14 00:00:00 2016'
p1150
F933.4913516031681
sS'Wed Sep 21 00:00:00 2016'
p1151
F780.5838825024173
sS'Thu Apr 23 00:00:00 2015'
p1152
F302.2788
sS'Wed Aug 20 00:00:00 2014'
p1153
F553.7980999999999
sS'Tue Sep  9 00:00:00 2014'
p1154
F512.3684000000001
sS'Fri Jun 13 00:00:00 2014'
p1155
F635.4009
sS'Thu Jul 13 00:00:00 2017'
p1156
F3057.71994930306
sS'Wed Jun 11 00:00:00 2014'
p1157
F668.7435
sS'Wed Mar 18 00:00:00 2015'
p1158
F329.8026
sS'Thu Jul 18 00:00:00 2013'
p1159
F92.5711
sS'Tue Sep  6 00:00:00 2016'
p1160
F795.2324
sS'Thu Mar  2 00:00:00 2017'
p1161
F1666.6841000000002
sS'Sat Dec 10 00:00:00 2016'
p1162
F1037.5001908354411
sS'Wed May  6 00:00:00 2015'
p1163
F288.2866
sS'Thu Jun 15 00:00:00 2017'
p1164
F3222.48072568156
sS'Sun Nov 10 00:00:00 2013'
p1165
F332.3846
sS'Wed Dec 17 00:00:00 2014'
p1166
F392.3258000000001
sS'Sat Oct 26 00:00:00 2013'
p1167
F183.534
sS'Fri Jun 26 00:00:00 2015'
p1168
F316.7289
sS'Wed Sep  2 00:00:00 2015'
p1169
F324.2977
sS'Sun Jul 23 00:00:00 2017'
p1170
F3451.10577136039
sS'Thu Oct 17 00:00:00 2013'
p1171
F148.3389
sS'Tue Dec 20 00:00:00 2016'
p1172
F1101.1462000000004
sS'Tue Mar  1 00:00:00 2016'
p1173
F601.5306
sS'Tue Mar 21 00:00:00 2017'
p1174
F1446.263698674969
sS'Fri Oct 28 00:00:00 2016'
p1175
F904.7757
sS'Thu Mar 24 00:00:00 2016'
p1176
F551.2492
sS'Wed Jul 27 00:00:00 2016'
p1177
F874.7787581336734
sS'Wed Jun  1 00:00:00 2016'
p1178
F743.5923
sS'Fri Jan  3 00:00:00 2014'
p1179
F927.8158
sS'Fri Apr 24 00:00:00 2015'
p1180
F295.2891999999999
sS'Thu Jul 17 00:00:00 2014'
p1181
F666.773
sS'Wed Mar 26 00:00:00 2014'
p1182
F628.049
sS'Sat Jul 15 00:00:00 2017'
p1183
F2597.1267733263
sS'Sat Dec 24 00:00:00 2016'
p1184
F1242.7611
sS'Fri Dec 30 00:00:00 2016'
p1185
F1332.7493000000004
sS'Wed Aug  6 00:00:00 2014'
p1186
F623.9921
sS'Fri Apr 11 00:00:00 2014'
p1187
F481.411
sS'Sat Aug 27 00:00:00 2016'
p1188
F751.6134999999999
sS'Mon Nov 28 00:00:00 2016'
p1189
F977.4216483747533
sS'Thu Dec 10 00:00:00 2015'
p1190
F573.4180000000001
sS'Sat Apr  4 00:00:00 2015'
p1191
F331.8311000000001
sS'Tue Feb 28 00:00:00 2017'
p1192
F1555.5817
sS'Fri Jun 28 00:00:00 2013'
p1193
F101.9075
sS'Tue Mar 11 00:00:00 2014'
p1194
F700.874
sS'Sun May  8 00:00:00 2016'
p1195
F622.9605
sS'Mon Feb 29 00:00:00 2016'
p1196
F611.6992000000002
sS'Tue Dec 24 00:00:00 2013'
p1197
F748.2561
sS'Sat Apr 11 00:00:00 2015'
p1198
F307.7734
sS'Sat Sep 24 00:00:00 2016'
p1199
F788.3434000000002
sS'Fri Jun 16 00:00:00 2017'
p1200
F3299.39116414796
sS'Mon Nov 25 00:00:00 2013'
p1201
F849.2731
sS'Thu Sep 26 00:00:00 2013'
p1202
F131.8744
sS'Mon Apr  6 00:00:00 2015'
p1203
F336.2052
sS'Thu Aug 15 00:00:00 2013'
p1204
F106.9752
sS'Sun Sep 29 00:00:00 2013'
p1205
F134.2544
sS'Thu Nov 12 00:00:00 2015'
p1206
F473.9027
sS'Tue Aug 20 00:00:00 2013'
p1207
F114.903
sS'Fri May 16 00:00:00 2014'
p1208
F481.411
sS'Sun Jul  3 00:00:00 2016'
p1209
F890.2810209828818
sS'Thu Aug 11 00:00:00 2016'
p1210
F762.8807000000003
sS'Mon Jul  6 00:00:00 2015'
p1211
F358.2944
sS'Tue Mar 31 00:00:00 2015'
p1212
F319.5718
sS'Wed Nov 13 00:00:00 2013'
p1213
F420.1051
sS'Sat Sep 23 00:00:00 2017'
p1214
F4723.83776057264
sS'Mon Aug 14 00:00:00 2017'
p1215
F5315.28011761246
sS'Wed Dec  2 00:00:00 2015'
p1216
F491.3867999999999
sS'Sat May  9 00:00:00 2015'
p1217
F304.2819
sS'Thu May  2 00:00:00 2013'
p1218
F103.3766
sS'Mon Oct 16 00:00:00 2017'
p1219
F7305.24859686529
sS'Sat Apr 25 00:00:00 2015'
p1220
F288.7195
sS'Thu Mar 19 00:00:00 2015'
p1221
F339.9744
sS'Sun Jun  7 00:00:00 2015'
p1222
F293.3049
sS'Sat Jul 11 00:00:00 2015'
p1223
F392.0297188138188
sS'Thu Jul  3 00:00:00 2014'
p1224
F685.4495999999999
sS'Mon Sep  4 00:00:00 2017'
p1225
F5433.84240525964
sS'Sat Aug 20 00:00:00 2016'
p1226
F763.0572890502001
sS'Sun Nov 22 00:00:00 2015'
p1227
F447.3445
sS'Thu Oct 15 00:00:00 2015'
p1228
F347.4557747191694
sS'Fri Feb 14 00:00:00 2014'
p1229
F726.8453
sS'Thu Dec 25 00:00:00 2014'
p1230
F391.9082
sS'Fri Mar 11 00:00:00 2016'
p1231
F554.6584000000001
sS'Fri Nov  8 00:00:00 2013'
p1232
F344.9844
sS'Sat Dec 31 00:00:00 2016'
p1233
F1342.1775869366709
sS'Thu Jul 25 00:00:00 2013'
p1234
F97.5198
sS'Thu Mar 20 00:00:00 2014'
p1235
F649.0745
sS'Sat Nov 30 00:00:00 2013'
p1236
F1234.7649
sS'Sun Jan 29 00:00:00 2017'
p1237
F1209.5046999999997
sS'Thu Aug 28 00:00:00 2014'
p1238
F541.7822000000001
sS'Sat Oct 12 00:00:00 2013'
p1239
F133.6339
sS'Sun May  3 00:00:00 2015'
p1240
F306.2324
sS'Tue Mar 24 00:00:00 2015'
p1241
F310.868
sS'Tue Dec 30 00:00:00 2014'
p1242
F379.0601
sS'Mon Sep 12 00:00:00 2016'
p1243
F800.9487586429276
sS'Sun Jul 28 00:00:00 2013'
p1244
F99.4396
sS'Fri Mar  3 00:00:00 2017'
p1245
F1697.5346116915675
sS'Sun Mar  1 00:00:00 2015'
p1246
F330.1903000000001
sS'Sun Jan 31 00:00:00 2016'
p1247
F514.8956999999999
sS'Tue Jul 30 00:00:00 2013'
p1248
F104.595
sS'Tue Jan 10 00:00:00 2017'
p1249
F1230.5212579024944
sS'Mon Dec  8 00:00:00 2014'
p1250
F435.6974
sS'Tue Aug  8 00:00:00 2017'
p1251
F4311.14994669575
sS'Tue Feb 24 00:00:00 2015'
p1252
F305.0047
sS'Mon Mar 31 00:00:00 2014'
p1253
F494.7318
sS'Mon Oct 28 00:00:00 2013'
p1254
F196.334
sS'Fri May  1 00:00:00 2015'
p1255
F296.4722
sS'Mon Jun 27 00:00:00 2016'
p1256
F883.1303
sS'Sun Jan 15 00:00:00 2017'
p1257
F1098.0347999999997
sS'Mon Apr 20 00:00:00 2015'
p1258
F290.3852000000001
sS'Tue Dec 10 00:00:00 2013'
p1259
F1082.5612
sS'Tue May  6 00:00:00 2014'
p1260
F481.411
sS'Sat Jul 20 00:00:00 2013'
p1261
F93.2366
sS'Thu May 19 00:00:00 2016'
p1262
F608.6561999999999
sS'Sat Apr  8 00:00:00 2017'
p1263
F1576.3608
sS'Sat Nov  5 00:00:00 2016'
p1264
F917.3504999999997
sS'Wed Oct  5 00:00:00 2016'
p1265
F803.5268000000001
sS'Sat Mar 12 00:00:00 2016'
p1266
F543.0954000000002
sS'Tue Jul 11 00:00:00 2017'
p1267
F3081.99406006263
sS'Mon Apr 18 00:00:00 2016'
p1268
F552.918
sS'Wed Aug 26 00:00:00 2015'
p1269
F316.2309
sS'Fri Jan  2 00:00:00 2015'
p1270
F388.7264
sS'Wed Sep 23 00:00:00 2015'
p1271
F328.4032
sS'Mon Aug 22 00:00:00 2016'
p1272
F766.4962
sS'Sun Jan 25 00:00:00 2015'
p1273
F322.2269000000001
sS'Thu Dec 31 00:00:00 2015'
p1274
F592.5117
sS'Thu Feb 12 00:00:00 2015'
p1275
F287.2055466888431
sS'Fri Jan 31 00:00:00 2014'
p1276
F968.9309
sS'Tue Jan 27 00:00:00 2015'
p1277
F326.6492999999999
sS'Mon Jun 23 00:00:00 2014'
p1278
F623.3595
sS'Thu Jun  8 23:39:21 2017'
p1279
F3746.199
sS'Tue Feb  2 00:00:00 2016'
p1280
F529.2238
sS'Fri Feb 21 00:00:00 2014'
p1281
F633.9123
sS'Sun Jul  6 00:00:00 2014'
p1282
F674.7377
sS'Sat Aug 24 00:00:00 2013'
p1283
F120.4463
sS'Mon May 16 00:00:00 2016'
p1284
F624.5299
sS'Sun May 17 00:00:00 2015'
p1285
F293.7687
sS'Sat Nov  2 00:00:00 2013'
p1286
F212.5248
sS'Wed Nov 26 00:00:00 2014'
p1287
F428.2438000000001
sS'Sun Apr  3 00:00:00 2016'
p1288
F544.7194000000003
sS'Tue Dec  6 00:00:00 2016'
p1289
F1016.8566000000002
sS'Sun Jan  4 00:00:00 2015'
p1290
F322.6859000000001
sS'Sun Mar 23 00:00:00 2014'
p1291
F617.1525
sS'Thu Oct 20 00:00:00 2016'
p1292
F823.8703000000005
sS'Sun Feb  7 00:00:00 2016'
p1293
F531.1289999999999
sS'Thu Oct 19 00:00:00 2017'
p1294
F7228.9513437112
sS'Mon Oct  9 00:00:00 2017'
p1295
F6134.08738101665
sS'Mon Mar 16 00:00:00 2015'
p1296
F379.5209
sS'Mon Jul 15 00:00:00 2013'
p1297
F102.744
sS'Thu Mar 16 00:00:00 2017'
p1298
F1586.5531148012344
sS'Sun May 21 00:00:00 2017'
p1299
F2754.4675
sS'Mon May 23 00:00:00 2016'
p1300
F613.3639
sS'Mon Jun  9 00:00:00 2014'
p1301
F690.0516
sS'Sat Jan 28 00:00:00 2017'
p1302
F1218.72
sS'Wed Mar 16 00:00:00 2016'
p1303
F551.8129000000001
sS'Tue Nov 29 00:00:00 2016'
p1304
F977.7165000000002
sS'Tue May 12 00:00:00 2015'
p1305
F302.5671
sS'Tue Apr 30 00:00:00 2013'
p1306
F134.5714
sS'Sun Jul  9 00:00:00 2017'
p1307
F3314.88449371858
sS'Sun Mar 19 00:00:00 2017'
p1308
F1329.0778977081525
sS'Sat Aug 19 00:00:00 2017'
p1309
F5189.88725348687
sS'Mon May 30 00:00:00 2016'
p1310
F743.6391
sS'Wed Jun 29 00:00:00 2016'
p1311
F855.8918
sS'Sun Oct  5 00:00:00 2014'
p1312
F375.4195000000001
sS'Fri Oct  2 00:00:00 2015'
p1313
F336.3671
sS'Sun Feb 21 00:00:00 2016'
p1314
F613.8982000000001
sS'Thu Nov 14 00:00:00 2013'
p1315
F440.9272
sS'Wed Dec 25 00:00:00 2013'
p1316
F770.1333
sS'Fri Nov 13 00:00:00 2015'
p1317
F473.3072000000001
sS'Sat Jan 31 00:00:00 2015'
p1318
F280.6869
sS'Wed Aug  5 00:00:00 2015'
p1319
F382.7371998229336
sS'Sun Mar  5 00:00:00 2017'
p1320
F1682.3444
sS'Thu Sep 28 00:00:00 2017'
p1321
F5268.74069742989
sS'Thu Jan 29 00:00:00 2015'
p1322
F299.5195398713033
sS'Fri Feb 10 00:00:00 2017'
p1323
F1293.5884999999998
sS'Fri Dec 11 00:00:00 2015'
p1324
F629.8394
sS'Tue Apr  5 00:00:00 2016'
p1325
F560.3076999999997
sS'Thu Mar 13 00:00:00 2014'
p1326
F706.0428
sS'Mon Jan 30 00:00:00 2017'
p1327
F1218.484150720196
sS'Wed Jul 26 00:00:00 2017'
p1328
F3134.44772649297
sS'Sat Jun 14 00:00:00 2014'
p1329
F608.0383
sS'Tue Jul  9 00:00:00 2013'
p1330
F81.4019
sS'Fri Mar 21 00:00:00 2014'
p1331
F628.3829
sS'Fri Jan 23 00:00:00 2015'
p1332
F294.4012
sS'Thu May  7 00:00:00 2015'
p1333
F299.4656
sS'Tue Jun 18 00:00:00 2013'
p1334
F112.2211
sS'Sat Jul  1 00:00:00 2017'
p1335
F3173.13058734695
sS'Sun Jan 19 00:00:00 2014'
p1336
F1001.2294
sS'Sun Apr 20 00:00:00 2014'
p1337
F481.411
sS'Sat Aug 26 00:00:00 2017'
p1338
F5199.89056069603
sS'Thu Aug 18 00:00:00 2016'
p1339
F744.6923673522831
sS'Fri Aug 23 00:00:00 2013'
p1340
F119.2966
sS'Tue Feb 18 00:00:00 2014'
p1341
F688.5666
sS'Sat Sep  9 00:00:00 2017'
p1342
F5269.00674509443
sS'Thu Sep  8 00:00:00 2016'
p1343
F817.9632999999999
sS'Sat Aug 12 00:00:00 2017'
p1344
F4813.35311922088
sS'Fri Oct 10 00:00:00 2014'
p1345
F411.2274
sS'Tue Jul 15 00:00:00 2014'
p1346
F660.4855
sS'Sat Jun  7 00:00:00 2014'
p1347
F481.411
sS'Thu Sep  7 00:00:00 2017'
p1348
F5689.35391250966
sS'Mon May 18 00:00:00 2015'
p1349
F290.9432999999999
sS'Sat Aug  3 00:00:00 2013'
p1350
F108.5381
sS'Mon Oct 17 00:00:00 2016'
p1351
F835.2856000000002
sS'Wed Apr  9 00:00:00 2014'
p1352
F481.411
sS'Sun Dec 18 00:00:00 2016'
p1353
F1082.9966000000002
sS'Sun Dec 20 00:00:00 2015'
p1354
F615.1319
sS'Sun Jan  8 00:00:00 2017'
p1355
F1245.2251
sS'Tue Oct 28 00:00:00 2014'
p1356
F397.1063
sS'Fri Nov  6 00:00:00 2015'
p1357
F528.7822
sS'Wed Aug 30 00:00:00 2017'
p1358
F5759.8229863642
sS'Tue Sep  3 00:00:00 2013'
p1359
F141.0811
sS'Thu May  9 00:00:00 2013'
p1360
F110.8214
sS'Thu Jan  7 00:00:00 2016'
p1361
F650.6611999999999
sS'Mon Nov  2 00:00:00 2015'
p1362
F491.2935
sS'Mon Dec 14 00:00:00 2015'
p1363
F611.7875
sS'Wed Dec  3 00:00:00 2014'
p1364
F444.9250999999999
sS'Wed Oct 16 00:00:00 2013'
p1365
F143.858
sS'Wed Mar  9 00:00:00 2016'
p1366
F550.7829
sS'Fri Aug  4 00:00:00 2017'
p1367
F3588.99506214598
sS'Sat Mar  1 00:00:00 2014'
p1368
F631.5211
sS'Sun Mar 22 00:00:00 2015'
p1369
F343.676
sS'Mon Apr 29 00:00:00 2013'
p1370
F140.0534
sS'Mon Apr 21 00:00:00 2014'
p1371
F481.411
sS'Wed Dec 31 00:00:00 2014'
p1372
F388.4696
sS'Thu Jun 29 00:00:00 2017'
p1373
F3333.76197218719
sS'Tue Apr 28 00:00:00 2015'
p1374
F281.3491
sS'Thu Apr 17 00:00:00 2014'
p1375
F481.411
sS'Sat Aug 17 00:00:00 2013'
p1376
F108.43
sS'Wed Mar 22 00:00:00 2017'
p1377
F1355.5220314934672
sS'Thu Apr 13 00:00:00 2017'
p1378
F1551.2722
sS'Sun Jul  2 00:00:00 2017'
p1379
F3274.16732915739
sS'Sun Oct  9 00:00:00 2016'
p1380
F808.5608999999998
sS'Thu Sep 14 00:00:00 2017'
p1381
F3875.54993190983
sS'Fri Jun 23 00:00:00 2017'
p1382
F3617.05282785621
sS'Sun Apr  2 00:00:00 2017'
p1383
F1437.5872000000004
sS'Mon May  1 00:00:00 2017'
p1384
F1871.7719
sS'Fri Nov 25 00:00:00 2016'
p1385
F991.8049916206076
sS'Wed Jan 14 00:00:00 2015'
p1386
F212.6268
sS'Sat Feb 11 00:00:00 2017'
p1387
F1317.0184000000004
sS'Wed May 31 00:00:00 2017'
p1388
F3136.9225
sS'Sat Aug  2 00:00:00 2014'
p1389
F631.6662192265194
sS'Thu Aug 29 00:00:00 2013'
p1390
F131.6898
sS'Fri Jul  5 00:00:00 2013'
p1391
F72.6094
sS'Fri May 17 00:00:00 2013'
p1392
F125.8088
sS'Fri Jun  5 00:00:00 2015'
p1393
F294.7149
sS'Sat Dec 21 00:00:00 2013'
p1394
F682.5187
sS'Wed Aug 12 00:00:00 2015'
p1395
F362.6483000000001
sS'Tue Oct 17 00:00:00 2017'
p1396
F7190.18051855959
sS'Sun Oct 27 00:00:00 2013'
p1397
F193.7095
sS'Sat May 31 00:00:00 2014'
p1398
F481.411
sS'Wed Apr 23 00:00:00 2014'
p1399
F481.411
sS'Wed Aug 28 00:00:00 2013'
p1400
F131.5816
sS'Sat Aug 31 00:00:00 2013'
p1401
F145.4352
sS'Mon Dec  9 00:00:00 2013'
p1402
F986.393
sS'Fri Feb 24 00:00:00 2017'
p1403
F1539.8276999999996
sS'Mon Feb  3 00:00:00 2014'
p1404
F967.6201
sS'Sat Aug  5 00:00:00 2017'
p1405
F4082.30869769241
sS'Thu Jun 18 00:00:00 2015'
p1406
F318.4091
sS'Fri Jan 16 00:00:00 2015'
p1407
F250.0361
sS'Tue Jul  7 00:00:00 2015'
p1408
F356.4651549775343
sS'Sat Jul 22 00:00:00 2017'
p1409
F3541.44752535338
sS'Sat Sep  7 00:00:00 2013'
p1410
F129.6101
sS'Mon Jun 10 00:00:00 2013'
p1411
F112.4909
sS'Mon Oct  7 00:00:00 2013'
p1412
F130.8239
sS'Thu Dec 29 00:00:00 2016'
p1413
F1346.4091999999998
sS'Tue Sep 26 00:00:00 2017'
p1414
F4887.91451254634
sS'Fri Sep  2 00:00:00 2016'
p1415
F757.7495
sS'Sun Dec  6 00:00:00 2015'
p1416
F536.9876
sS'Sun Nov 17 00:00:00 2013'
p1417
F507.9924
sS'Mon Aug  8 00:00:00 2016'
p1418
F771.5346000000002
sS'Fri Oct 16 00:00:00 2015'
p1419
F361.0493
sS'Sat Jan 10 00:00:00 2015'
p1420
F334.9476
sS'Sat Jul  4 00:00:00 2015'
p1421
F346.3595
sS'Sat Nov 28 00:00:00 2015'
p1422
F495.1859999999999
sS'Fri Apr 10 00:00:00 2015'
p1423
F305.2186000000001
sS'Fri Mar 14 00:00:00 2014'
p1424
F693.9009
sS'Sat Feb 15 00:00:00 2014'
p1425
F714.5104
sS'Sun Oct  4 00:00:00 2015'
p1426
F338.3411
sS'Wed Feb 18 00:00:00 2015'
p1427
F300.2739
sS'Wed Sep  7 00:00:00 2016'
p1428
F800.23732464757
sS'Thu Jul  2 00:00:00 2015'
p1429
F333.5199020919166
sS'Fri Feb  7 00:00:00 2014'
p1430
F785.3996
sS'Fri Jan 27 00:00:00 2017'
p1431
F1216.7622
sS'Sat May 23 00:00:00 2015'
p1432
F305.2704913483354
sS'Wed Dec 28 00:00:00 2016'
p1433
F1360.4877000000004
sS'Mon Sep 18 00:00:00 2017'
p1434
F5033.41256745428
sS'Fri Jul  1 00:00:00 2016'
p1435
F903.7938
sS'Mon Jun 19 00:00:00 2017'
p1436
F3448.89085125063
sS'Tue Aug 11 00:00:00 2015'
p1437
F369.2322
sS'Sun Nov  3 00:00:00 2013'
p1438
F219.5448
sS'Thu May  5 00:00:00 2016'
p1439
F601.1155
sS'Fri Jun 19 00:00:00 2015'
p1440
F312.5826999999999
sS'Tue Dec  3 00:00:00 2013'
p1441
F1169.8265
sS'Sun Jul 10 00:00:00 2016'
p1442
F859.4560000000001
sS'Sun Dec 22 00:00:00 2013'
p1443
F692.5721
sS'Sun Jul 14 00:00:00 2013'
p1444
F99.848
sS'Mon Aug 29 00:00:00 2016'
p1445
F755.7852101154082
sS'Sat Mar 22 00:00:00 2014'
p1446
F621.3931
sS'Mon Jan  4 00:00:00 2016'
p1447
F603.5461
sS'Sat Apr  1 00:00:00 2017'
p1448
F1422.2565000000004
sS'Thu Jun 13 00:00:00 2013'
p1449
F109.5523
sS'Sun Feb  9 00:00:00 2014'
p1450
F761.6624
sS'Sat Sep  3 00:00:00 2016'
p1451
F787.8422
sS'Wed Jul 24 00:00:00 2013'
p1452
F94.3842
sS'Mon Jun  8 00:00:00 2015'
p1453
F297.3862
sS'Sat Jan 21 00:00:00 2017'
p1454
F1217.0928
sS'Thu Jun 26 00:00:00 2014'
p1455
F615.5528
sS'Sun Oct 23 00:00:00 2016'
p1456
F853.9597000000003
sS'Sun Aug  2 00:00:00 2015'
p1457
F385.4412999999999
sS'Sun Nov 13 00:00:00 2016'
p1458
F929.7308225322979
sS'Mon Aug 28 00:00:00 2017'
p1459
F5325.46457083499
sS'Sun Sep  7 00:00:00 2014'
p1460
F513.031
sS'Sun Sep 28 00:00:00 2014'
p1461
F429.5747
sS'Sun Sep 20 00:00:00 2015'
p1462
F320.6446
sS'Mon Sep 30 00:00:00 2013'
p1463
F131.908
sS'Thu May 21 00:00:00 2015'
p1464
F298.1947000000001
sS'Wed Feb 12 00:00:00 2014'
p1465
F718.9438
sS'Sat Apr 22 00:00:00 2017'
p1466
F1656.6922
sS'Sat Feb 28 00:00:00 2015'
p1467
F324.7004
sS'Fri Jan  9 00:00:00 2015'
p1468
F353.1006999999999
sS'Tue Jan 17 00:00:00 2017'
p1469
F1196.1648999999998
sS'Sat Jun 17 00:00:00 2017'
p1470
F3520.80266623608
sS'Tue Nov  5 00:00:00 2013'
p1471
F251.8305
sS'Tue May  9 00:00:00 2017'
p1472
F2313.7002
sS'Tue Oct  3 00:00:00 2017'
p1473
F5513.83605243415
sS'Wed Feb 26 00:00:00 2014'
p1474
F643.7974
sS'Tue Jan  6 00:00:00 2015'
p1475
F353.3406
sS'Wed Jun 14 00:00:00 2017'
p1476
F3297.11215674214
sS'Thu Jun 16 00:00:00 2016'
p1477
F1038.7287
sS'Thu Oct  1 00:00:00 2015'
p1478
F337.8975
sS'Tue Aug 25 00:00:00 2015'
p1479
F310.1412
sS'Sat Jan 30 00:00:00 2016'
p1480
F531.9709999999999
sS'Mon Mar 24 00:00:00 2014'
p1481
F642.1306
sS'Sat Nov  1 00:00:00 2014'
p1482
F368.2246
sS'Mon Feb 15 00:00:00 2016'
p1483
F559.9093999999999
sS'Sat Aug 29 00:00:00 2015'
p1484
F318.4357
sS'Sun May 26 00:00:00 2013'
p1485
F138.3171
sS'Sat Mar 28 00:00:00 2015'
p1486
F325.1817
sS'Tue Mar  4 00:00:00 2014'
p1487
F741.2927
sS'Fri Sep 20 00:00:00 2013'
p1488
F130.688
sS'Sun Apr  5 00:00:00 2015'
p1489
F340.4289999999999
sS'Tue Nov 11 00:00:00 2014'
p1490
F421.3295000000001
sS'Tue Jul 25 00:00:00 2017'
p1491
F3229.30710382787
sS'Tue Feb 16 00:00:00 2016'
p1492
F572.8818999999999
sS'Fri Oct 18 00:00:00 2013'
p1493
F154.6666
sS'Tue Jun  2 00:00:00 2015'
p1494
F290.5643
sS'Fri Apr  1 00:00:00 2016'
p1495
F542.3919
sS'Mon Dec 30 00:00:00 2013'
p1496
F847.39
sS'Fri Sep  8 00:00:00 2017'
p1497
F5316.50750729325
sS'Tue Apr 19 00:00:00 2016'
p1498
F558.9379999999999
sS'Sun Jun  4 00:00:00 2017'
p1499
F3438.1346
sS'Wed May  4 00:00:00 2016'
p1500
F599.1444
sS'Sun Aug 24 00:00:00 2014'
p1501
F546.5912000000001
sS'Sun Sep 21 00:00:00 2014'
p1502
F443.9227
sS'Tue Jun 25 00:00:00 2013'
p1503
F111.9054
sS'Thu Sep 22 00:00:00 2016'
p1504
F778.0126999999998
sS'Tue Sep  2 00:00:00 2014'
p1505
F511.8457999999999
sS'Sat Apr 26 00:00:00 2014'
p1506
F481.411
sS'Wed Sep  6 00:00:00 2017'
p1507
F5735.23841081519
sS'Tue Mar  3 00:00:00 2015'
p1508
F359.087
sS'Tue Oct  7 00:00:00 2014'
p1509
F376.6511
sS'Tue Dec  1 00:00:00 2015'
p1510
F496.1314
sS'Wed Jul  6 00:00:00 2016'
p1511
F899.6482000000002
sS'Fri Nov  7 00:00:00 2014'
p1512
F395.2554000000001
sS'Fri Sep 27 00:00:00 2013'
p1513
F132.4234
sS'Sun Jan 10 00:00:00 2016'
p1514
F644.0173
sS'Wed Mar 30 00:00:00 2016'
p1515
F538.1085999999999
sS'Sat Aug  9 00:00:00 2014'
p1516
F634.0089796756406
sS'Tue May 16 00:00:00 2017'
p1517
F2310.916
sS'Wed Nov 23 00:00:00 2016'
p1518
F1003.4560275614311
sS'Tue Oct  8 00:00:00 2013'
p1519
F131.9354
sS'Wed Aug  3 00:00:00 2016'
p1520
F747.649006833007
sS'Thu Apr  6 00:00:00 2017'
p1521
F1583.8128000000002
sS'Wed Nov 27 00:00:00 2013'
p1522
F1044.6476
sS'Thu Feb 25 00:00:00 2016'
p1523
F584.8742
sS'Mon Dec 15 00:00:00 2014'
p1524
F419.5266
sS'Mon Jul 10 00:00:00 2017'
p1525
F3107.55750865539
sS'Sat Jun 13 00:00:00 2015'
p1526
F300.8884
sS'Fri Feb  6 00:00:00 2015'
p1527
F285.0913
sS'Sun Aug  6 00:00:00 2017'
p1528
F4020.69284464521
sS'Thu Mar 10 00:00:00 2016'
p1529
F558.5330999999998
sS'Wed Jul 12 00:00:00 2017'
p1530
F3109.25001263315
sS'Sun Feb 26 00:00:00 2017'
p1531
F1538.6646
sS'Thu Jan 26 00:00:00 2017'
p1532
F1215.8777
sS'Sat Nov 26 00:00:00 2016'
p1533
F984.4517999999998
sS'Mon Oct 14 00:00:00 2013'
p1534
F140.2431
sS'Wed Jan 15 00:00:00 2014'
p1535
F981.8443
sS'Sun Sep  8 00:00:00 2013'
p1536
F126.7473
sS'Sat Sep 12 00:00:00 2015'
p1537
F331.2452
sS'Tue Feb  9 00:00:00 2016'
p1538
F528.7969000000002
sS'Sun Nov 27 00:00:00 2016'
p1539
F977.289
sS'Tue May 30 00:00:00 2017'
p1540
F2905.6723
sS'Fri Jul 11 00:00:00 2014'
p1541
F671.7363999999997
sS'Wed Nov 11 00:00:00 2015'
p1542
F433.0751999999999
sS'Tue Sep  8 00:00:00 2015'
p1543
F346.4729
sS'Fri Dec  9 00:00:00 2016'
p1544
F1033.0306999999998
sS'Mon Sep 16 00:00:00 2013'
p1545
F134.0639
sS'Wed Apr 15 00:00:00 2015'
p1546
F290.4633
sS'Tue Apr 21 00:00:00 2015'
p1547
F304.4128
sS'Sun Feb 14 00:00:00 2016'
p1548
F568.5781000000001
sS'Sat Jun 27 00:00:00 2015'
p1549
F327.3874
sS'Thu Dec 12 00:00:00 2013'
p1550
F980.9474
sS'Fri Mar  4 00:00:00 2016'
p1551
F550.8689999999999
sS'Thu Jan  2 00:00:00 2014'
p1552
F907.3657
sS'Sun Oct 19 00:00:00 2014'
p1553
F441.51
sS'Mon May  5 00:00:00 2014'
p1554
F481.411
sS'Thu May 25 00:00:00 2017'
p1555
F3174.8747
sS'Sun Dec 15 00:00:00 2013'
p1556
F981.7963
sS'Sun Aug 28 00:00:00 2016'
p1557
F759.1674999999999
sS'Sat Jul 27 00:00:00 2013'
p1558
F96.1718
sS'Mon Jan 23 00:00:00 2017'
p1559
F1209.1279000000002
sS'Thu May 11 00:00:00 2017'
p1560
F2453.4429
sS'Sun Dec  8 00:00:00 2013'
p1561
F872.1152
sS'Sat Oct 10 00:00:00 2015'
p1562
F334.4801
sS'Wed Aug 16 00:00:00 2017'
p1563
F5379.44723338837
sS'Wed May 25 00:00:00 2016'
p1564
F624.5319000000002
sS'Mon Apr 24 00:00:00 2017'
p1565
F1651.2585
sS'Fri May 29 00:00:00 2015'
p1566
F310.1320999999999
sS'Fri Aug  9 00:00:00 2013'
p1567
F102.6093
sS'Sun Nov 16 00:00:00 2014'
p1568
F442.26
sS'Fri Mar 28 00:00:00 2014'
p1569
F543.334
sS'Thu Aug 27 00:00:00 2015'
p1570
F310.9118
sS'Sat Sep 10 00:00:00 2016'
p1571
F826.0201000000001
sS'Tue May  3 00:00:00 2016'
p1572
F600.7915999999998
sS'Thu Jun  1 00:00:00 2017'
p1573
F3304.1334
sS'Sun Aug 25 00:00:00 2013'
p1574
F123.8268
sS'Sun May  7 00:00:00 2017'
p1575
F2102.3137
sS'Thu Sep 21 00:00:00 2017'
p1576
F4573.72294255127
sS'Fri Jun 12 00:00:00 2015'
p1577
F298.1566999999999
sS'Sat Jun 11 00:00:00 2016'
p1578
F810.2252951042101
sS'Wed Sep 27 00:00:00 2017'
p1579
F5265.79596348505
sS'Fri Sep 29 00:00:00 2017'
p1580
F5273.76788149475
sS'Mon Jun 22 00:00:00 2015'
p1581
F319.8993
sS'Fri Nov 29 00:00:00 2013'
p1582
F1230.1915
sS'Mon Dec  7 00:00:00 2015'
p1583
F542.8659
sS'Fri May 10 00:00:00 2013'
p1584
F116.3016
sS'Sun Oct 20 00:00:00 2013'
p1585
F168.6819
sS'Fri Feb 20 00:00:00 2015'
p1586
F311.325
sS'Thu Apr 14 00:00:00 2016'
p1587
F552.3155
sS'Fri Sep  9 00:00:00 2016'
p1588
F824.3348
sS'Thu Nov 13 00:00:00 2014'
p1589
F477.0710000000001
sS'Sun Dec 14 00:00:00 2014'
p1590
F424.4943000000001
sS'Sat Dec 20 00:00:00 2014'
p1591
F403.8127000000001
sS'Tue Oct 11 00:00:00 2016'
p1592
F848.9075000000003
sS'Sun Apr 17 00:00:00 2016'
p1593
F558.4131000000001
sS'Mon Oct  6 00:00:00 2014'
p1594
F375.1
sS'Wed Sep 11 00:00:00 2013'
p1595
F134.5274
sS'Wed Aug 24 00:00:00 2016'
p1596
F759.1301150509511
sS'Tue Jun  3 00:00:00 2014'
p1597
F481.411
sS'Sat Sep 30 00:00:00 2017'
p1598
F5487.47563718426
sS'Wed Jul  2 00:00:00 2014'
p1599
F685.5492
sS'Fri Sep 13 00:00:00 2013'
p1600
F136.8346
sS'Thu Dec 11 00:00:00 2014'
p1601
F419.4973000000001
sS'Mon Feb  9 00:00:00 2015'
p1602
F282.305
sS'Wed Sep  9 00:00:00 2015'
p1603
F340.8522
sS'Mon Jul 27 00:00:00 2015'
p1604
F402.3714000000001
sS'Thu Aug 25 00:00:00 2016'
p1605
F755.7774
sS'Sun Dec 13 00:00:00 2015'
p1606
F605.9266
sS'Thu Jan 23 00:00:00 2014'
p1607
F974.7439
sS'Thu Aug 31 00:00:00 2017'
p1608
F5922.75334325831
sS'Sat Apr 12 00:00:00 2014'
p1609
F481.411
sS'Mon Oct 19 00:00:00 2015'
p1610
F364.4802999999999
sS'Sat Oct  4 00:00:00 2014'
p1611
F377.9520000000001
sS'Thu Mar 31 00:00:00 2016'
p1612
F541.7688999999999
sS'Mon Aug  5 00:00:00 2013'
p1613
F108.8077
sS'Sun Oct  1 00:00:00 2017'
p1614
F5544.05414134376
sS'Tue Feb  7 00:00:00 2017'
p1615
F1379.4172000000005
sS'Sat Mar 21 00:00:00 2015'
p1616
F333.8069
sS'Fri Feb 17 00:00:00 2017'
p1617
F1377.9988763294143
sS'Sat Apr 23 00:00:00 2016'
p1618
F585.6763000000001
sS'Thu Dec  3 00:00:00 2015'
p1619
F492.0095000000001
sS'Mon Dec  5 00:00:00 2016'
p1620
F1006.2213000000003
sS'Sat Oct 14 00:00:00 2017'
p1621
F7198.95176570674
sS'Fri Jul 14 00:00:00 2017'
p1622
F2846.75974218925
sS'Sat Feb 22 00:00:00 2014'
p1623
F673.7605
sS'Thu Oct  9 00:00:00 2014'
p1624
F408.8913999999999
sS'Sun Sep 13 00:00:00 2015'
p1625
F325.2880000000001
sS'Mon Aug 18 00:00:00 2014'
p1626
F493.2068000000001
sS'Sat Jun 29 00:00:00 2013'
p1627
F103.6206
sS'Tue Sep 22 00:00:00 2015'
p1628
F324.9396
sS'Thu Oct 23 00:00:00 2014'
p1629
F406.5353000000002
sS'Mon Sep 15 00:00:00 2014'
p1630
F523.8533
sS'Fri Jun  3 00:00:00 2016'
p1631
F774.3705999999999
sS'Mon Jul 17 00:00:00 2017'
p1632
F2798.95431631271
sS'Thu May 30 00:00:00 2013'
p1633
F133.8842
sS'Tue Mar 29 00:00:00 2016'
p1634
F544.3512
sS'Mon Jun  6 00:00:00 2016'
p1635
F794.6941999999998
sS'Sun Nov 30 00:00:00 2014'
p1636
F444.1679
sS'Tue Jun 28 00:00:00 2016'
p1637
F875.0345
sS'Tue Jun 10 00:00:00 2014'
p1638
F693.4147
sS'Mon Sep  8 00:00:00 2014'
p1639
F507.7540000000002
sS'Mon Apr  4 00:00:00 2016'
p1640
F551.5949999999999
sS'Tue Oct 21 00:00:00 2014'
p1641
F436.0388999999999
sS'Thu Nov  6 00:00:00 2014'
p1642
F406.2729999999999
sS'Fri Jul 29 00:00:00 2016'
p1643
F864.9087905976409
sS'Fri Aug  7 00:00:00 2015'
p1644
F375.4058136789453
sS'Fri Jan 13 00:00:00 2017'
p1645
F1100.3921
sS'Fri May 12 00:00:00 2017'
p1646
F2303.6334
sS'Thu Apr  3 00:00:00 2014'
p1647
F494.7318
sS'Fri Jan 17 00:00:00 2014'
p1648
F943.1651
sS'Fri Oct  3 00:00:00 2014'
p1649
F410.6686
sS'Fri May 26 00:00:00 2017'
p1650
F3039.8275
sS'Thu Jun  4 00:00:00 2015'
p1651
F292.0077
sS'Sat Oct 29 00:00:00 2016'
p1652
F941.4262161053271
sS'Wed May 20 00:00:00 2015'
p1653
F297.2988
sS'Sat Sep 14 00:00:00 2013'
p1654
F134.1953
sS'Sat Jan 16 00:00:00 2016'
p1655
F559.7223999999998
sS'Fri Dec  4 00:00:00 2015'
p1656
F494.2757999999999
sS'Sun Jul 13 00:00:00 2014'
p1657
F668.6006111850373
sS'Sat Dec 12 00:00:00 2015'
p1658
F605.1092000000002
sS'Thu Jan 12 00:00:00 2017'
p1659
F1069.0348
sS'Wed Jun  8 00:00:00 2016'
p1660
F778.7409000000001
sS'Mon Aug  4 00:00:00 2014'
p1661
F628.3381503627002
sS'Sat Feb 14 00:00:00 2015'
p1662
F333.9316
sS'Sun Jul 27 00:00:00 2014'
p1663
F628.127
sS'Sat Nov 19 00:00:00 2016'
p1664
F1022.3398596097096
sS'Sun Jun 21 00:00:00 2015'
p1665
F314.1544
sS'Wed Apr  5 00:00:00 2017'
p1666
F1495.7910940304039
sS'Sat Jan 24 00:00:00 2015'
p1667
F313.6127
sS'Wed May 15 00:00:00 2013'
p1668
F115.2481
sS'Tue Jul 21 00:00:00 2015'
p1669
F370.3568103739424
sS'Tue Mar 18 00:00:00 2014'
p1670
F671.9278
sS'Wed Jan  1 00:00:00 2014'
p1671
F866.5822
sS'Mon Sep 14 00:00:00 2015'
p1672
F322.6191000000001
sS'Wed Oct 12 00:00:00 2016'
p1673
F840.5153999999998
sS'Mon Aug 12 00:00:00 2013'
p1674
F103.4119
sS'Mon Sep 29 00:00:00 2014'
p1675
F427.9123
sS'Thu Jun  5 00:00:00 2014'
p1676
F481.411
sS'Fri Apr 15 00:00:00 2016'
p1677
F556.5417000000002
sS'Fri Jul 31 00:00:00 2015'
p1678
F388.3168369513301
sS'Mon Aug  3 00:00:00 2015'
p1679
F387.3550352849002
sS'Fri Aug  8 00:00:00 2014'
p1680
F637.0092506885745
sS'Fri Jul 26 00:00:00 2013'
p1681
F98.2004
sS'Wed Oct  4 00:00:00 2017'
p1682
F5382.71864840395
sS'Sat Sep  6 00:00:00 2014'
p1683
F514.3829999999999
sS'Wed Apr  1 00:00:00 2015'
p1684
F324.5758
sS'Thu Oct 24 00:00:00 2013'
p1685
F190.3891
sS'Sun Jun 25 00:00:00 2017'
p1686
F3446.79456961648
sS'Tue Sep  1 00:00:00 2015'
p1687
F323.5513
sS'Sun Apr  9 00:00:00 2017'
p1688
F1583.6553999999999
sS'Tue Apr  8 00:00:00 2014'
p1689
F481.411
sS'Sat Sep  2 00:00:00 2017'
p1690
F5714.88493177707
sS'Mon Sep  2 00:00:00 2013'
p1691
F141.6128
sS'Thu Sep  3 00:00:00 2015'
p1692
F322.87
sS'Tue Dec 15 00:00:00 2015'
p1693
F646.2174999999997
sS'Sat Oct 22 00:00:00 2016'
p1694
F857.0656000000004
sS'Thu Apr  7 00:00:00 2016'
p1695
F560.9334000000001
sS'Tue May 26 00:00:00 2015'
p1696
F306.8059
sS'Thu Aug  1 00:00:00 2013'
p1697
F107.4987
sS'Fri Oct 30 00:00:00 2015'
p1698
F456.459
sS'Thu Aug 21 00:00:00 2014'
p1699
F554.4653
sS'Thu Jan 16 00:00:00 2014'
p1700
F960.8334
sS'Wed Mar 19 00:00:00 2014'
p1701
F673.8512
sS'Tue Aug 22 00:00:00 2017'
p1702
F5066.38615986085
sS'Mon Nov 17 00:00:00 2014'
p1703
F441.7423999999999
sS'Fri Jul 22 00:00:00 2016'
p1704
F871.8262000000001
sS'Sat Feb  6 00:00:00 2016'
p1705
F530.5392999999998
sS'Wed Jul 15 00:00:00 2015'
p1706
F384.6713588007832
sS'Tue Aug 30 00:00:00 2016'
p1707
F766.5444999999999
sS'Mon Dec 21 00:00:00 2015'
p1708
F609.1447
sS'Mon Dec  1 00:00:00 2014'
p1709
F446.6985
sS'Mon Jul  7 00:00:00 2014'
p1710
F659.6048999999997
sS'Wed May 11 00:00:00 2016'
p1711
F613.4174000000002
sS'Mon Jun 20 00:00:00 2016'
p1712
F984.9616473531352
sS'Thu Feb 11 00:00:00 2016'
p1713
F530.9312
sS'Mon Jan 20 00:00:00 2014'
p1714
F987.6852
sS'Tue Aug  4 00:00:00 2015'
p1715
F385.2567
sS'Wed Jul  3 00:00:00 2013'
p1716
F83.9828
sS'Sat May 20 00:00:00 2017'
p1717
F2740.3661
sS'Thu Dec 15 00:00:00 2016'
p1718
F1053.3363000000002
sS'Thu Jan 19 00:00:00 2017'
p1719
F1187.2079
sS'Mon May  4 00:00:00 2015'
p1720
F304.8393
sS'Mon Apr 25 00:00:00 2016'
p1721
F596.4304999999999
sS'Sun Aug 21 00:00:00 2016'
p1722
F761.7836695290154
sS'Mon Nov 21 00:00:00 2016'
p1723
F999.3180000000001
sS'Thu Mar  6 00:00:00 2014'
p1724
F725.3347
sS'Tue Nov 12 00:00:00 2013'
p1725
F375.6085
sS'Fri Nov 27 00:00:00 2015'
p1726
F500.3979000000002
sS'Tue Sep 17 00:00:00 2013'
p1727
F134.714
sS'Thu Jun 19 00:00:00 2014'
p1728
F630.0981
sS'Sun Dec 27 00:00:00 2015'
p1729
F582.5819
sS'Sat Apr  2 00:00:00 2016'
p1730
F546.2656000000001
sS'Thu Mar 17 00:00:00 2016'
p1731
F547.6467000000001
sS'Thu Sep 29 00:00:00 2016'
p1732
F792.1720999999998
sS'Mon Mar 10 00:00:00 2014'
p1733
F693.4587
sS'Fri Dec 12 00:00:00 2014'
p1734
F426.3401000000001
sS'Wed Aug 17 00:00:00 2016'
p1735
F746.0646183066842
sS'Sat May 14 00:00:00 2016'
p1736
F626.6679000000003
sS'Fri Jul 10 00:00:00 2015'
p1737
F382.7252999999999
sS'Wed Nov 18 00:00:00 2015'
p1738
F472.0786
sS'Fri May 13 00:00:00 2016'
p1739
F627.3434000000002
sS'Mon Jul 31 00:00:00 2017'
p1740
F3589.80152086764
sS'Sun Apr 19 00:00:00 2015'
p1741
F285.3726000000001
sS'Tue Jan 19 00:00:00 2016'
p1742
F548.8288999999999
sS'Sun May 11 00:00:00 2014'
p1743
F481.411
sS'Fri Oct 21 00:00:00 2016'
p1744
F827.5448999999999
sS'Sun Jun 11 00:00:00 2017'
p1745
F4001.3128
sS'Wed Jun  7 00:00:00 2017'
p1746
F3598.6638
sS'Mon Mar 17 00:00:00 2014'
p1747
F683.7485
sS'Tue Mar 28 00:00:00 2017'
p1748
F1368.2629999999995
sS'Mon Oct 23 00:00:00 2017'
p1749
F7628.37897309466
sS'Thu Oct 12 00:00:00 2017'
p1750
F6815.3609691147
sS'Sat May 24 00:00:00 2014'
p1751
F481.411
sS'Mon Oct  5 00:00:00 2015'
p1752
F339.2531
sS'Tue Jun 30 00:00:00 2015'
p1753
F340.8286419892476
sS'Fri Nov  4 00:00:00 2016'
p1754
F914.8323999999999
sS'Mon Jul 29 00:00:00 2013'
p1755
F100.6608
sS'Wed Nov 20 00:00:00 2013'
p1756
F613.8772
sS'Mon Nov 24 00:00:00 2014'
p1757
F438.4338
sS'Wed Dec 21 00:00:00 2016'
p1758
F1143.4663766381354
sS'Wed Aug 31 00:00:00 2016'
p1759
F760.112665285988
sS'Tue Oct  6 00:00:00 2015'
p1760
F344.1093
sS'Wed May 24 00:00:00 2017'
p1761
F3264.4241
sS'Tue Mar 17 00:00:00 2015'
p1762
F373.2334
sS'Fri May  3 00:00:00 2013'
p1763
F95.6465
sS'Thu Jan  9 00:00:00 2014'
p1764
F967.6227
sS'Wed Oct 11 00:00:00 2017'
p1765
F6163.01576874556
sS'Wed Jul 20 00:00:00 2016'
p1766
F895.8245715372793
sS'Sat Jul  6 00:00:00 2013'
p1767
F73.5521
sS'Mon Apr 11 00:00:00 2016'
p1768
F556.5507
sS'Thu Apr  9 00:00:00 2015'
p1769
F315.8618933731345
sS'Mon Nov 23 00:00:00 2015'
p1770
F448.7691
sS'Sun Feb 19 00:00:00 2017'
p1771
F1373.4260000000002
sS'Tue Jan 28 00:00:00 2014'
p1772
F948.1867
sS'Wed Feb  8 00:00:00 2017'
p1773
F1381.4082999999996
sS'Sat Oct 17 00:00:00 2015'
p1774
F371.5314999999999
sS'Sat Feb  8 00:00:00 2014'
p1775
F755.6285
sS'Mon Nov 30 00:00:00 2015'
p1776
F523.2693
sS'Wed Jan 25 00:00:00 2017'
p1777
F1179.7295
sS'Fri Sep 25 00:00:00 2015'
p1778
F334.2996
sS'Sat Aug 13 00:00:00 2016'
p1779
F763.8180991873467
sS'Sun Jun  5 00:00:00 2016'
p1780
F781.0906952452857
sS'Sat Apr  9 00:00:00 2016'
p1781
F550.9951000000001
sS'Sun Mar  9 00:00:00 2014'
p1782
F699.2456
sS'Sun Jun  1 00:00:00 2014'
p1783
F481.411
sS'Thu May  4 00:00:00 2017'
p1784
F2023.2274
sS'Mon Nov 18 00:00:00 2013'
p1785
F719.2505
sS'Fri Aug 12 00:00:00 2016'
p1786
F766.6169000000002
sS'Thu Feb  9 00:00:00 2017'
p1787
F1287.8988
sS'Wed Apr 19 00:00:00 2017'
p1788
F1633.1451
sS'Sun May 15 00:00:00 2016'
p1789
F630.9318000000001
sS'Mon Apr 28 00:00:00 2014'
p1790
F481.411
sS'Wed Apr 16 00:00:00 2014'
p1791
F481.411
sS'Fri Oct 11 00:00:00 2013'
p1792
F132.6108
sS'Sun Sep 24 00:00:00 2017'
p1793
F4611.31348862097
sS'Sun Aug 23 00:00:00 2015'
p1794
F311.7737
sS'Tue May 14 00:00:00 2013'
p1795
F111.8072
sS'Sat Mar 15 00:00:00 2014'
p1796
F701.6093
sS'Thu Apr 21 00:00:00 2016'
p1797
F582.8258
sS'Sat Oct  3 00:00:00 2015'
p1798
F338.8136999999999
sS'Mon May 26 00:00:00 2014'
p1799
F481.411
sS'Sat Jun 18 00:00:00 2016'
p1800
F1023.1942851443989
sS'Mon Jan 19 00:00:00 2015'
p1801
F261.5106
sS'Fri May  8 00:00:00 2015'
p1802
F306.9588
sS'Sat Dec  6 00:00:00 2014'
p1803
F447.4785
sS'Tue Nov 19 00:00:00 2013'
p1804
F574.6381
sS'Mon Nov 16 00:00:00 2015'
p1805
F467.2289
sS'Mon Jun 16 00:00:00 2014'
p1806
F625.4783
sS'Fri Dec 26 00:00:00 2014'
p1807
F403.4523641400801
sS'Sun Feb 28 00:00:00 2016'
p1808
F607.2191000000003
sS'Tue Jul 19 00:00:00 2016'
p1809
F897.6928214119207
sS'Sun Oct 26 00:00:00 2014'
p1810
F397.7734
sS'Wed May  3 00:00:00 2017'
p1811
F2000.8238
sS'Thu Nov  7 00:00:00 2013'
p1812
F299.5259
sS'Sun Aug  9 00:00:00 2015'
p1813
F356.6692198080916
sS'Fri Sep 12 00:00:00 2014'
p1814
F524.1371000000001
sS'Wed Feb  3 00:00:00 2016'
p1815
F512.6885000000001
sS'Wed Aug 27 00:00:00 2014'
p1816
F546.7712
sS'Sun Sep 17 00:00:00 2017'
p1817
F4443.53868402292
sS'Fri Aug 19 00:00:00 2016'
p1818
F751.7495999902748
sS'Thu Apr  2 00:00:00 2015'
p1819
F332.5695
sS'Sat Jun  1 00:00:00 2013'
p1820
F134.7469
sS'Mon Aug 31 00:00:00 2015'
p1821
F323.3402
sS'Thu May 18 00:00:00 2017'
p1822
F2547.9811
sS'Thu Mar 30 00:00:00 2017'
p1823
F1349.1868447049137
sS'Mon Oct 21 00:00:00 2013'
p1824
F180.379
sS'Thu Feb  6 00:00:00 2014'
p1825
F875.3487
sS'Sat Apr 19 00:00:00 2014'
p1826
F481.411
sS'Tue May  2 00:00:00 2017'
p1827
F1912.9087
sS'Wed Mar  5 00:00:00 2014'
p1828
F736.5822
sS'Sun Dec 25 00:00:00 2016'
p1829
F1248.3085496618478
sS'Fri Feb 27 00:00:00 2015'
p1830
F325.1172999999999
sS'Sun May 24 00:00:00 2015'
p1831
F308.4125
sS'Tue Aug  2 00:00:00 2016'
p1832
F678.7556303844449
sS'Mon Jan 26 00:00:00 2015'
p1833
F341.7637
sS'Sat Dec  3 00:00:00 2016'
p1834
F1024.8788872068928
sS'Fri Jun 14 00:00:00 2013'
p1835
F104.0803
sS'Wed Jun 22 00:00:00 2016'
p1836
F786.9664
sS'Mon Jan 12 00:00:00 2015'
p1837
F328.9394448276914
sS'Sun Jan 17 00:00:00 2016'
p1838
F564.104
sS'Mon May  6 00:00:00 2013'
p1839
F108.8597
sS'Thu Jul 11 00:00:00 2013'
p1840
F98.7794
sS'Fri Apr 22 00:00:00 2016'
p1841
F580.0583
sS'Tue Apr 22 00:00:00 2014'
p1842
F481.411
sS'Sat Mar 18 00:00:00 2017'
p1843
F1251.0075000000004
sS'Fri Nov 21 00:00:00 2014'
p1844
F402.9355831886863
sS'Sat Apr 16 00:00:00 2016'
p1845
F557.8389
sS'Tue Jan 26 00:00:00 2016'
p1846
F560.5394000000001
sS'Thu Jul  4 00:00:00 2013'
p1847
F85.5011
sS'Tue Oct 20 00:00:00 2015'
p1848
F372.1195999999999
sS'Mon Apr 13 00:00:00 2015'
p1849
F295.2153
sS'Fri Jan 22 00:00:00 2016'
p1850
F538.8019
sS'Sat Jan  4 00:00:00 2014'
p1851
F960.2248
sS'Mon Mar 23 00:00:00 2015'
p1852
F336.8851000000001
sS'Tue Dec 22 00:00:00 2015'
p1853
F603.3337
sS'Wed Sep 20 00:00:00 2017'
p1854
F4810.7206441418
sS'Sat Jan 11 00:00:00 2014'
p1855
F1034.8219
sS'Sat Feb  4 00:00:00 2017'
p1856
F1345.1681000000003
sS'Sun Jan 18 00:00:00 2015'
p1857
F254.2043
sS'Sun Jun 19 00:00:00 2016'
p1858
F1029.8145999999997
sS'Sun Aug  3 00:00:00 2014'
p1859
F629.109985923553
sS'Sat Dec 27 00:00:00 2014'
p1860
F387.2647000000001
sS'Wed Mar 23 00:00:00 2016'
p1861
F555.1836
sS'Tue Nov  3 00:00:00 2015'
p1862
F554.4115
sS'Mon Oct  3 00:00:00 2016'
p1863
F796.123174210861
sS'Thu Jul 20 00:00:00 2017'
p1864
F3479.38219295046
sS'Tue Jan  5 00:00:00 2016'
p1865
F603.3475999999999
sS'Wed Feb 25 00:00:00 2015'
p1866
F301.0601
sS'Thu May 22 00:00:00 2014'
p1867
F481.411
sS'Wed Feb 22 00:00:00 2017'
p1868
F1458.9529999999997
sS'Thu Nov 24 00:00:00 2016'
p1869
F994.329348994342
sS'Tue Nov 18 00:00:00 2014'
p1870
F430.0505
sS'Fri Oct  6 00:00:00 2017'
p1871
F5595.98455725886
sS'Mon Nov  3 00:00:00 2014'
p1872
F372.9662000000001
sS'Tue Apr 26 00:00:00 2016'
p1873
F603.9240000000001
sS'Fri Jan 10 00:00:00 2014'
p1874
F983.392
sS'Sat Nov 14 00:00:00 2015'
p1875
F465.0707
sS'Thu Jun 12 00:00:00 2014'
p1876
F617.3317
sS'Sat Oct 18 00:00:00 2014'
p1877
F444.9217
sS'Wed Dec 23 00:00:00 2015'
p1878
F612.1450999999998
sS'Mon Jan  2 00:00:00 2017'
p1879
F1416.0391000000004
sS'Sat Sep 26 00:00:00 2015'
p1880
F333.7238
sS'Fri May  6 00:00:00 2016'
p1881
F626.6062000000001
sS'Sun Mar 12 00:00:00 2017'
p1882
F1632.8768999999995
sS'Fri Jun 21 00:00:00 2013'
p1883
F118.9856
sS'Tue Jul 14 00:00:00 2015'
p1884
F384.6736999999999
sS'Mon Jul  3 00:00:00 2017'
p1885
F3363.70000093709
sS'Thu Feb 20 00:00:00 2014'
p1886
F613.1114
sS'Sat Feb 13 00:00:00 2016'
p1887
F549.3270000000001
sS'Sun Dec 11 00:00:00 2016'
p1888
F1032.4027
sS'Tue Apr 29 00:00:00 2014'
p1889
F481.411
sS'Tue Jun 24 00:00:00 2014'
p1890
F613.8043
sS'Sat Nov 29 00:00:00 2014'
p1891
F440.9842
sS'Thu Aug 13 00:00:00 2015'
p1892
F357.9633867000422
sS'Fri Apr 18 00:00:00 2014'
p1893
F481.411
sS'Sun Jan 22 00:00:00 2017'
p1894
F1215.6843386994346
sS'Fri Mar 27 00:00:00 2015'
p1895
F318.8571999999999
sS'Sat Feb 27 00:00:00 2016'
p1896
F606.4047
sS'Mon Jan  5 00:00:00 2015'
p1897
F337.8436
sS'Wed Dec 24 00:00:00 2014'
p1898
F397.2536000000001
sS'Thu Apr 20 00:00:00 2017'
p1899
F1666.4153
sS'Fri May 20 00:00:00 2016'
p1900
F611.8129000000001
sS'Thu Oct  2 00:00:00 2014'
p1901
F422.6489
sS'Sun May  5 00:00:00 2013'
p1902
F112.4208
sS'Wed Oct 19 00:00:00 2016'
p1903
F813.6933000000001
sS'Tue Sep 20 00:00:00 2016'
p1904
F804.3136768341478
sS'Sat Mar 14 00:00:00 2015'
p1905
F368.5816
sS'Sun May 10 00:00:00 2015'
p1906
F302.2887999999999
sS'Mon Jul 28 00:00:00 2014'
p1907
F622.3016999999999
sS'Fri Dec  5 00:00:00 2014'
p1908
F450.7214
sS'Tue Jul  2 00:00:00 2013'
p1909
F95.074
sS'Tue Sep 16 00:00:00 2014'
p1910
F509.5528000000002
sS'Tue Jun 23 00:00:00 2015'
p1911
F315.1315999999999
sS'Wed Jul  8 00:00:00 2015'
p1912
F363.150511862126
sS'Tue Sep 30 00:00:00 2014'
p1913
F442.6305999999999
sS'Tue Feb 23 00:00:00 2016'
p1914
F583.04
sS'Sat Sep  5 00:00:00 2015'
p1915
F339.7021999999999
sS'Thu Sep 25 00:00:00 2014'
p1916
F463.8410000000001
sS'Thu Apr 24 00:00:00 2014'
p1917
F481.411
sS'Mon Aug 24 00:00:00 2015'
p1918
F294.1403879610833
sS'Sat Nov 15 00:00:00 2014'
p1919
F431.4937
sS'Wed Sep 25 00:00:00 2013'
p1920
F131.8606
sS'Mon Oct 31 00:00:00 2016'
p1921
F917.8870000000002
sS'Mon Nov  9 00:00:00 2015'
p1922
F540.2336
sS'Sun Apr 13 00:00:00 2014'
p1923
F481.411
sS'Wed Aug 19 00:00:00 2015'
p1924
F307.4023999999999
sS'Mon Jan  9 00:00:00 2017'
p1925
F1226.265936584095
sS'Fri May 23 00:00:00 2014'
p1926
F481.411
sS'Thu Jul 14 00:00:00 2016'
p1927
F864.8301999999995
sS'Sat Mar 19 00:00:00 2016'
p1928
F534.7757000000001
sS'Fri Nov 20 00:00:00 2015'
p1929
F444.1318000000001
sS'Sun May 25 00:00:00 2014'
p1930
F481.411
sS'Sat Jun 20 00:00:00 2015'
p1931
F315.8924
sS'Wed Oct 23 00:00:00 2013'
p1932
F208.5551
sS'Fri Jun 10 00:00:00 2016'
p1933
F784.8637208543722
sS'Fri Jul 28 00:00:00 2017'
p1934
F3504.23225928175
sS'Tue Nov 17 00:00:00 2015'
p1935
F471.1634000000001
sS'Thu Oct 22 00:00:00 2015'
p1936
F379.3774
sS'Sun Jan  1 00:00:00 2017'
p1937
F1383.2704000000006
sS'Wed Dec 30 00:00:00 2015'
p1938
F586.2092000000001
sS'Sat Dec 28 00:00:00 2013'
p1939
F823.6446
sS'Sat Nov 12 00:00:00 2016'
p1940
F932.2416999999997
sS'Tue Aug 13 00:00:00 2013'
p1941
F107.1622
sS'Tue Dec 27 00:00:00 2016'
p1942
F1292.8056999999997
sS'Wed Oct 15 00:00:00 2014'
p1943
F445.4603999999999
sS'Sat Oct 24 00:00:00 2015'
p1944
F391.9327999999998
sS'Mon Mar  2 00:00:00 2015'
p1945
F347.8091999999999
sS'Tue Apr  7 00:00:00 2015'
p1946
F331.3108999999999
sS'Thu May 16 00:00:00 2013'
p1947
F119.1903
sS'Fri May 15 00:00:00 2015'
p1948
F295.0295
sS'Wed Nov 12 00:00:00 2014'
p1949
F480.3630000000001
sS'Sun May  4 00:00:00 2014'
p1950
F481.411
sS'Fri May 31 00:00:00 2013'
p1951
F133.3446
sS'Wed Jan 22 00:00:00 2014'
p1952
F976.1771
sS'Wed Dec  4 00:00:00 2013'
p1953
F1270.5162
sS'Mon May  8 00:00:00 2017'
p1954
F2213.2235
sS'Fri Apr 28 00:00:00 2017'
p1955
F1764.4296
sS'Wed Feb 11 00:00:00 2015'
p1956
F283.6223
sS'Mon Oct  2 00:00:00 2017'
p1957
F5600.13665543164
sS'Sat May 11 00:00:00 2013'
p1958
F115.3565
sS'Wed Jun 24 00:00:00 2015'
p1959
F312.2092000000002
sS'Tue Jul 22 00:00:00 2014'
p1960
F659.0200999999998
sS'Mon Dec 16 00:00:00 2013'
p1961
F796.8575
sS'Thu Dec  4 00:00:00 2014'
p1962
F438.52
sS'Fri Sep 11 00:00:00 2015'
p1963
F338.423862158368
sS'Sun Jul 24 00:00:00 2016'
p1964
F885.0931215519781
sS'Mon Aug  1 00:00:00 2016'
p1965
F804.5077000000003
sS'Fri Nov  1 00:00:00 2013'
p1966
F210.15
sS'Sat Nov  7 00:00:00 2015'
p1967
F549.1769999999999
sS'Sat Aug  8 00:00:00 2015'
p1968
F350.1591048290236
sS'Wed May 10 00:00:00 2017'
p1969
F2374.8455
sS'Wed Apr 22 00:00:00 2015'
p1970
F301.74
sS'Tue Jun  7 00:00:00 2016'
p1971
F775.2494795903815
sS'Thu Aug  4 00:00:00 2016'
p1972
F755.8316622196048
sS'Sun Jul 30 00:00:00 2017'
p1973
F3430.01097372392
sS'Sun Jul 19 00:00:00 2015'
p1974
F369.7816845567368
sS'Tue May 28 00:00:00 2013'
p1975
F133.8299
sS'Wed Aug 14 00:00:00 2013'
p1976
F107.5889
sS'Fri Jun  2 00:00:00 2017'
p1977
F3378.8829
sS'Mon Sep 11 00:00:00 2017'
p1978
F5189.28130673844
sS'Mon Feb  1 00:00:00 2016'
p1979
F521.6265
sS'Thu Jan 21 00:00:00 2016'
p1980
F582.5405
sS'Wed Jun 12 00:00:00 2013'
p1981
F115.5474
sS'Thu Jan  8 00:00:00 2015'
p1982
F350.3601
sS'Thu Apr 30 00:00:00 2015'
p1983
F298.9415000000001
sS'Sun Feb  2 00:00:00 2014'
p1984
F975.1409
sS'Thu Jul 31 00:00:00 2014'
p1985
F627.3418119567693
sS'Tue Aug 18 00:00:00 2015'
p1986
F345.1231
sS'Fri Aug 18 00:00:00 2017'
p1987
F5167.64893310088
sS'Tue Jan  3 00:00:00 2017'
p1988
F1432.8862999999994
sS'Wed Mar 25 00:00:00 2015'
p1989
F314.1149
sS'Fri Jul  7 00:00:00 2017'
p1990
F3299.63449200026
sS'Tue Dec 16 00:00:00 2014'
p1991
F399.6517999999999
sS'Tue Oct  1 00:00:00 2013'
p1992
F133.6391
sS'Wed Jan 13 00:00:00 2016'
p1993
F621.2095000000002
sS'Sat Oct 11 00:00:00 2014'
p1994
F413.9463000000001
sS'Thu Feb  2 00:00:00 2017'
p1995
F1317.106700131076
sS'Thu Mar  3 00:00:00 2016'
p1996
F571.3557999999999
sS'Sun Jul 16 00:00:00 2017'
p1997
F2463.37990199855
sS'Sat Dec 17 00:00:00 2016'
p1998
F1080.0398999999995
sS'Fri Jul  4 00:00:00 2014'
p1999
F669.4546
sS'Sun Jul 20 00:00:00 2014'
p2000
F662.9991
sS'Wed Jan  4 00:00:00 2017'
p2001
F1554.331135309907
sS'Sat May 21 00:00:00 2016'
p2002
F613.5533
sS'Tue Jan  7 00:00:00 2014'
p2003
F908.6793
sS'Wed Apr 13 00:00:00 2016'
p2004
F553.9221999999997
sS'Sat May 25 00:00:00 2013'
p2005
F136.6814
sS'Tue May 10 00:00:00 2016'
p2006
F610.9681
sS'Tue Mar 22 00:00:00 2016'
p2007
F546.5096999999998
sS'Fri Dec 27 00:00:00 2013'
p2008
F841.9431
sS'Sun Jun 18 00:00:00 2017'
p2009
F3381.69838472019
sS'Mon Sep 26 00:00:00 2016'
p2010
F793.9462042377401
sS'Thu May  1 00:00:00 2014'
p2011
F481.411
sS'Sat Sep 16 00:00:00 2017'
p2012
F4506.08052794646
sS'Wed Sep 28 00:00:00 2016'
p2013
F784.6757999999999
sS'Sun Nov 15 00:00:00 2015'
p2014
F450.3694
sS'Sun Apr 10 00:00:00 2016'
p2015
F557.3001
sS'Wed May 22 00:00:00 2013'
p2016
F126.2999
sS'Mon Nov 10 00:00:00 2014'
p2017
F421.8652000000001
sS'Fri Jun 24 00:00:00 2016'
p2018
F884.8203210774427
sS'Sun Nov  9 00:00:00 2014'
p2019
F420.3603484668322
sS'Fri Sep 15 00:00:00 2017'
p2020
F4483.13851877703
sS'Thu Oct 16 00:00:00 2014'
p2021
F433.6567000000001
sS'Wed Dec  9 00:00:00 2015'
p2022
F577.0661000000001
sS'Thu Nov 27 00:00:00 2014'
p2023
F431.9007
sS'Tue Jun 17 00:00:00 2014'
p2024
F650.4847
sS'Sat Sep 28 00:00:00 2013'
p2025
F133.7637
sS'Thu Aug 24 00:00:00 2017'
p2026
F5272.61262347885
sS'Sat Aug 15 00:00:00 2015'
p2027
F353.0420343769304
sS'Sun Jul  7 00:00:00 2013'
p2028
F79.9753
sS'Sun Sep  6 00:00:00 2015'
p2029
F345.3051
sS'Sat Dec 26 00:00:00 2015'
p2030
F572.8450000000003
sS'Thu Jul 10 00:00:00 2014'
p2031
F654.9555999999999
sS'Wed Aug  7 00:00:00 2013'
p2032
F107.8706
sS'Tue Aug 27 00:00:00 2013'
p2033
F130.1317
sS'Wed Mar  2 00:00:00 2016'
p2034
F581.8718
sS'Sun Nov 24 00:00:00 2013'
p2035
F819.5855
sS'Wed Dec 14 00:00:00 2016'
p2036
F1048.1337999999998
sS'Sat Jul 19 00:00:00 2014'
p2037
F669.1751000000002
sS'Mon Jun 24 00:00:00 2013'
p2038
F110.5932
sS'Mon Jul 14 00:00:00 2014'
p2039
F658.0958878232865
sS'Sat Apr 18 00:00:00 2015'
p2040
F286.4384
sS'Fri Jun  7 00:00:00 2013'
p2041
F116.2172
sS'Mon Jul 13 00:00:00 2015'
p2042
F392.7744999999999
sS'Tue Nov  4 00:00:00 2014'
p2043
F374.9584999999999
sS'Wed Jul 17 00:00:00 2013'
p2044
F98.0588
sS'Tue Dec 23 00:00:00 2014'
p2045
F411.8540000000001
sS'Tue Jan 13 00:00:00 2015'
p2046
F271.1889
sS'Thu Jul  7 00:00:00 2016'
p2047
F853.3386999999998
sS'Fri Mar 24 00:00:00 2017'
p2048
F1234.2131841972096
sS'Tue May 24 00:00:00 2016'
p2049
F621.0423000000001
sS'Sun Jun 12 00:00:00 2016'
p2050
F910.936134346134
sS'Sat Mar  4 00:00:00 2017'
p2051
F1670.3731324957068
sS'Wed Feb 15 00:00:00 2017'
p2052
F1308.3080000000004
sS'Sun Nov 23 00:00:00 2014'
p2053
F422.8453
sS'Sun Oct 11 00:00:00 2015'
p2054
F338.0171999999999
sS'Sat Mar 11 00:00:00 2017'
p2055
F1565.9611216387252
sS'Tue Oct 27 00:00:00 2015'
p2056
F409.3790999999999
sS'Fri Nov 28 00:00:00 2014'
p2057
F443.1489
sS'Wed Feb  5 00:00:00 2014'
p2058
F920.4669
sS'Mon Jun 30 00:00:00 2014'
p2059
F677.9146
sS'Mon Nov  7 00:00:00 2016'
p2060
F915.0741
sS'Tue Aug 16 00:00:00 2016'
p2061
F751.1985655184401
sS'Wed Jul 31 00:00:00 2013'
p2062
F107.8933
sS'Mon Feb 27 00:00:00 2017'
p2063
F1554.7257239599055
sS'Sun Aug 14 00:00:00 2016'
p2064
F745.3523000000001
sS'Sun Apr 16 00:00:00 2017'
p2065
F1564.4525
sS'Fri Jul 12 00:00:00 2013'
p2066
F96.3029
sS'Sun Jun 15 00:00:00 2014'
p2067
F629.6662
sS'Sun Jan 26 00:00:00 2014'
p2068
F1012.345
sS'Sun May 18 00:00:00 2014'
p2069
F481.411
sS'Wed Sep 16 00:00:00 2015'
p2070
F317.6685000000001
sS'Tue Jul 23 00:00:00 2013'
p2071
F94.1187
sS'Tue Feb 10 00:00:00 2015'
p2072
F283.9504
sS'Sat Aug  1 00:00:00 2015'
p2073
F384.2519000000001
sS'Thu Oct  8 00:00:00 2015'
p2074
F334.865
sS'Fri Apr  8 00:00:00 2016'
p2075
F554.1206999999999
sS'Wed Nov 25 00:00:00 2015'
p2076
F452.5643
sS'Sun Mar 20 00:00:00 2016'
p2077
F542.0838999999999
sS'Sun Aug  7 00:00:00 2016'
p2078
F778.7545999999998
sS'Fri May  2 00:00:00 2014'
p2079
F481.411
sS'Sun Jan 12 00:00:00 2014'
p2080
F971.1677
sS'Mon Jun  5 00:00:00 2017'
p2081
F3635.2512
sS'Fri Oct  7 00:00:00 2016'
p2082
F811.8219999999999
sS'Mon Jan 16 00:00:00 2017'
p2083
F1108.3603000000003
sS'Tue Dec  8 00:00:00 2015'
p2084
F571.6929000000001
sS'Tue May  7 00:00:00 2013'
p2085
F106.9207
sS'Sat May  7 00:00:00 2016'
p2086
F623.3864000000001
sS'Sun Apr 30 00:00:00 2017'
p2087
F1803.8362
sS'Sun Sep 14 00:00:00 2014'
p2088
F526.965
sS'Thu Sep 11 00:00:00 2014'
p2089
F523.1525
sS'Tue Sep 24 00:00:00 2013'
p2090
F130.5454
sS'Sat Nov  9 00:00:00 2013'
p2091
F358.1917
sS'Thu Dec 26 00:00:00 2013'
p2092
F860.465
sS'Fri May 27 00:00:00 2016'
p2093
F659.4175000000001
sS'Sat Jan 17 00:00:00 2015'
p2094
F242.4043
sS'Wed Jul 22 00:00:00 2015'
p2095
F373.7426000000001
sS'Sat Oct 19 00:00:00 2013'
p2096
F165.1777
sS'Tue Jul  8 00:00:00 2014'
p2097
F659.7694
sS'Fri Mar 20 00:00:00 2015'
p2098
F335.5839999999999
sS'Sat Jul 23 00:00:00 2016'
p2099
F877.7837000000004
sS'Thu Nov 17 00:00:00 2016'
p2100
F996.2280000000001
sS'Mon Jun  2 00:00:00 2014'
p2101
F481.411
sS'Tue Jul  4 00:00:00 2017'
p2102
F3431.98659715573
sS'Sun Feb 22 00:00:00 2015'
p2103
F300.3751999999999
sS'Wed Aug  9 00:00:00 2017'
p2104
F4220.54066365464
sS'Sun May 14 00:00:00 2017'
p2105
F2392.889
sS'Fri Jun  9 00:00:00 2017'
p2106
F3741.3272
sS'Tue Oct 25 00:00:00 2016'
p2107
F853.6912000000003
sS'Sun Mar 30 00:00:00 2014'
p2108
F499.3798
sS'Mon May 22 00:00:00 2017'
p2109
F2818.1571
sS'Wed Oct  1 00:00:00 2014'
p2110
F436.0532
sS'Sat Jul 16 00:00:00 2016'
p2111
F875.5811
sS'Thu Oct 29 00:00:00 2015'
p2112
F443.1606
sS'Thu Feb 27 00:00:00 2014'
p2113
F643.2846
sS'Mon Jan 18 00:00:00 2016'
p2114
F561.4215999999999
sS'Sun Feb 16 00:00:00 2014'
p2115
F674.3545
sS'Tue Aug  5 00:00:00 2014'
p2116
F625.9391147956492
sS'Mon Apr  3 00:00:00 2017'
p2117
F1498.0958365536696
sS'Wed Jul  9 00:00:00 2014'
p2118
F659.4264
sS'Fri Aug 26 00:00:00 2016'
p2119
F764.2098000000001
sS'Sun Feb 12 00:00:00 2017'
p2120
F1305.3422889987842
sS'Sat Oct  1 00:00:00 2016'
p2121
F801.4709492445963
sS'Sat Jun 21 00:00:00 2014'
p2122
F629.546
sS'Sun Dec 21 00:00:00 2014'
p2123
F392.5332000000001
sS'Tue Feb  3 00:00:00 2015'
p2124
F290.5115
sS'Wed Mar 15 00:00:00 2017'
p2125
F1633.6723000000002
sS'Sat Jul 18 00:00:00 2015'
p2126
F372.2139
sS'Thu Oct 27 00:00:00 2016'
p2127
F900.6075
sS'Fri Oct 13 00:00:00 2017'
p2128
F7109.93112279334
sS'Wed Jan  8 00:00:00 2014'
p2129
F967.4137
sS'Fri Dec  2 00:00:00 2016'
p2130
F1033.543
sS'Tue Nov 25 00:00:00 2014'
p2131
F439.9714999999999
sS'Fri May 19 00:00:00 2017'
p2132
F2646.0569
sS'Thu Nov 21 00:00:00 2013'
p2133
F753.692
sS'Fri Oct 31 00:00:00 2014'
p2134
F382.55884077157
sS'Sat Jul 26 00:00:00 2014'
p2135
F631.9244
sS'Sun Mar  6 00:00:00 2016'
p2136
F545.0776
sS'Thu Jun 25 00:00:00 2015'
p2137
F313.3916
sS'Sat Jul 30 00:00:00 2016'
p2138
F860.9634909405482
sS'Wed Apr 12 00:00:00 2017'
p2139
F1617.9145
sS'Tue Oct 15 00:00:00 2013'
p2140
F145.4511
sS'Mon Jul 24 00:00:00 2017'
p2141
F3467.25858328734
sS'Sun Nov  1 00:00:00 2015'
p2142
F455.6131
sS'Sun Dec  1 00:00:00 2013'
p2143
F1037.6674
sS'Tue Sep 12 00:00:00 2017'
p2144
F5150.42672435315
sS'Fri Jun  6 00:00:00 2014'
p2145
F481.411
sS'Wed Nov  4 00:00:00 2015'
p2146
F564.5628000000002
sS'Tue Jul 28 00:00:00 2015'
p2147
F400.3387
sS'Mon Sep 25 00:00:00 2017'
p2148
F4871.66568864447
sS'Wed Apr  8 00:00:00 2015'
p2149
F317.7497999999999
sS'Tue Apr 11 00:00:00 2017'
p2150
F1634.8377
sS'Sun Jul  5 00:00:00 2015'
p2151
F361.978627144515
sS'Wed Nov  9 00:00:00 2016'
p2152
F942.4621999999997
sS'Thu Jan 28 00:00:00 2016'
p2153
F536.0008000000003
sS'Sat Feb 18 00:00:00 2017'
p2154
F1380.0013172281822
sS'Thu Sep 15 00:00:00 2016'
p2155
F805.5777999999999
sS'Fri Jan 30 00:00:00 2015'
p2156
F294.5487
sS'Fri Sep 16 00:00:00 2016'
p2157
F809.3089210813815
sS'Mon Mar  3 00:00:00 2014'
p2158
F740.0546
sS'Fri Aug  5 00:00:00 2016'
p2159
F755.9222
sS'Mon May  2 00:00:00 2016'
p2160
F579.7816
sS'Tue Sep 10 00:00:00 2013'
p2161
F130.6074
sS'Tue Jul 16 00:00:00 2013'
p2162
F101.9485
sS'Sat Jul  5 00:00:00 2014'
p2163
F670.9806
sS'Sat May 10 00:00:00 2014'
p2164
F481.411
sS'Mon Apr 17 00:00:00 2017'
p2165
F1588.5749
sS'Sat Jul  2 00:00:00 2016'
p2166
F923.0403999999999
sS'Wed Sep 30 00:00:00 2015'
p2167
F337.0753999999999
sS'Sun Sep 18 00:00:00 2016'
p2168
F812.6072999999998
sS'Fri Feb 13 00:00:00 2015'
p2169
F303.4857
sS'Thu Apr 10 00:00:00 2014'
p2170
F481.411
sS'Fri Sep 23 00:00:00 2016'
p2171
F789.1579
sS'Wed Jul 19 00:00:00 2017'
p2172
F2858.86696146942
sS'Wed Jan 18 00:00:00 2017'
p2173
F1163.2893000000004
sS'Tue Oct 10 00:00:00 2017'
p2174
F6126.41749930531
sS'Wed Jun  3 00:00:00 2015'
p2175
F290.0288
sS'Tue Oct 29 00:00:00 2013'
p2176
F208.9339
sS'Fri Feb 26 00:00:00 2016'
p2177
F599.0051000000001
sS'Thu Aug 17 00:00:00 2017'
p2178
F5410.1884014465
sS'Wed Sep 18 00:00:00 2013'
p2179
F133.3195
sS'Fri Sep 30 00:00:00 2016'
p2180
F793.8977
sS'Wed Oct 22 00:00:00 2014'
p2181
F432.5405
sS'Sun Apr 23 00:00:00 2017'
p2182
F1650.2743
sS'Sun Sep 22 00:00:00 2013'
p2183
F130.6918
sS'Sun Aug 31 00:00:00 2014'
p2184
F514.5065999999999
sS'Wed Sep 17 00:00:00 2014'
p2185
F508.0883999999999
sS'Thu Nov 19 00:00:00 2015'
p2186
F452.7495
sS'Wed May 17 00:00:00 2017'
p2187
F2427.0557
sS'Tue Jun 21 00:00:00 2016'
p2188
F891.8367247407624
sS'Tue Feb 21 00:00:00 2017'
p2189
F1466.980474614446
sS'Fri Dec 19 00:00:00 2014'
p2190
F389.9584999999999
sS'Mon Dec 29 00:00:00 2014'
p2191
F384.2266
sS'Sat Jan  2 00:00:00 2016'
p2192
F595.2633
sS'Fri Oct 17 00:00:00 2014'
p2193
F434.7838
sS'Tue Oct 24 00:00:00 2017'
p2194
F7137.0441633743
sS'Fri Apr 29 00:00:00 2016'
p2195
F600.1326999999999
sS'Fri Feb 28 00:00:00 2014'
p2196
F609.2836
sS'Sun Oct 12 00:00:00 2014'
p2197
F431.6494000000001
sS'Mon Mar 21 00:00:00 2016'
p2198
F542.2191999999999
sS'Mon Feb  2 00:00:00 2015'
p2199
F307.9104
sS'Wed Apr 30 00:00:00 2014'
p2200
F481.411
sS'Thu Dec  1 00:00:00 2016'
p2201
F1015.5045
sS'Mon Aug 26 00:00:00 2013'
p2202
F124.2864
sS'Fri Jan 20 00:00:00 2017'
p2203
F1180.5142
sS'Thu Mar  9 00:00:00 2017'
p2204
F1588.2354610274517
sS'Wed Aug 23 00:00:00 2017'
p2205
F5145.20140627839
sS'Fri Mar 13 00:00:00 2015'
p2206
F377.1553
sS'Thu Dec  5 00:00:00 2013'
p2207
F1149.3159
sS'Sun Mar 16 00:00:00 2014'
p2208
F699.1728
sS'Mon Sep 21 00:00:00 2015'
p2209
F317.4687
sS'Mon Aug 11 00:00:00 2014'
p2210
F618.8923
sS'Fri Jan 15 00:00:00 2016'
p2211
F534.5768999999999
sS'Fri Dec 20 00:00:00 2013'
p2212
F698.0967
sS'Fri Jun 30 00:00:00 2017'
p2213
F3238.97334501623
sS'Tue Dec 29 00:00:00 2015'
p2214
F592.4010999999999
sS'Sun Jul 31 00:00:00 2016'
p2215
F821.0783446046843
sS'Sun Sep 15 00:00:00 2013'
p2216
F133.9366
sS'Thu Sep 19 00:00:00 2013'
p2217
F131.3714
sS'Mon Feb 24 00:00:00 2014'
p2218
F603.4413
sS'Fri Jun 20 00:00:00 2014'
p2219
F626.8743
sS'Thu Sep 17 00:00:00 2015'
p2220
F324.4828
sS'Tue Jun 16 00:00:00 2015'
p2221
F323.1066000000001
sS'Wed Sep  4 00:00:00 2013'
p2222
F131.5975
sS'Thu Nov 20 00:00:00 2014'
p2223
F412.459999466018
sS'Thu Jul 30 00:00:00 2015'
p2224
F393.4345000000001
sS'Mon Jul 20 00:00:00 2015'
p2225
F375.8864
sS'Sat Feb 20 00:00:00 2016'
p2226
F617.0166
sS'Sat Aug 10 00:00:00 2013'
p2227
F101.5095
sS'Tue Mar 25 00:00:00 2014'
p2228
F635.6602
sS'Fri Sep 18 00:00:00 2015'
p2229
F323.1104999999999
sS'Thu Jul 28 00:00:00 2016'
p2230
F873.2704270219403
sS'Fri Aug 11 00:00:00 2017'
p2231
F4513.60262649795
sS'Mon Oct 20 00:00:00 2014'
p2232
F432.1338
sS'Sat May 30 00:00:00 2015'
p2233
F305.404
sS'Wed Dec  7 00:00:00 2016'
p2234
F1020.7240999999997
sS'Sat Dec 14 00:00:00 2013'
p2235
F968.0152
sS'Sun Jul 17 00:00:00 2016'
p2236
F893.4153483551095
sS'Tue Jun  9 00:00:00 2015'
p2237
F298.5073
sS'Sat May  4 00:00:00 2013'
p2238
F109.5431
sS'Sat Nov 23 00:00:00 2013'
p2239
F847.2195
sS'Fri May  9 00:00:00 2014'
p2240
F481.411
sS'Sat Dec  7 00:00:00 2013'
p2241
F762.9923
sS'Wed Mar  4 00:00:00 2015'
p2242
F348.4487
sS'Mon May 20 00:00:00 2013'
p2243
F124.8431
sS'Sun Jul 21 00:00:00 2013'
p2244
F93.0849
sS'Fri Jun 17 00:00:00 2016'
p2245
F1013.2909000000003
sS'Mon Mar 30 00:00:00 2015'
p2246
F322.0158999999999
sS'Wed Dec 18 00:00:00 2013'
p2247
F590.1415
sS'Sat Aug  6 00:00:00 2016'
p2248
F771.1464000000002
sS'Wed Jun 10 00:00:00 2015'
p2249
F295.9049999999999
sS'Mon Oct 27 00:00:00 2014'
p2250
F395.8761999999999
sS'Fri Aug 16 00:00:00 2013'
p2251
F107.5359
sS'Thu Aug 20 00:00:00 2015'
p2252
F319.8457
sS'Thu Aug  7 00:00:00 2014'
p2253
F633.5464108924821
sS'Mon Apr 14 00:00:00 2014'
p2254
F481.411
sS'Fri Apr 17 00:00:00 2015'
p2255
F285.6981775733395
sS'Sat Feb  7 00:00:00 2015'
p2256
F291.4232000000001
sS'Tue Jan 12 00:00:00 2016'
p2257
F637.9509
sS'Sat Nov  8 00:00:00 2014'
p2258
F398.7461000000001
sS'Fri Mar 18 00:00:00 2016'
p2259
F536.8799999999999
sS'Thu Oct  3 00:00:00 2013'
p2260
F124.4432
sS'Sun Oct 16 00:00:00 2016'
p2261
F840.5453999999999
sS'Mon May 27 00:00:00 2013'
p2262
F134.4477
sS'Fri Sep  1 00:00:00 2017'
p2263
F6102.55834436898
sS'Fri Jan  6 00:00:00 2017'
p2264
F1223.2407000000005
sS'Tue Aug 12 00:00:00 2014'
p2265
F612.1226393317332
sS'Fri Aug 28 00:00:00 2015'
p2266
F322.9574
sS'Mon Sep 23 00:00:00 2013'
p2267
F129.6427
sS'Tue Dec 17 00:00:00 2013'
p2268
F768.0633
sS'Tue Nov 15 00:00:00 2016'
p2269
F942.5917770332749
sS'Sun Nov 29 00:00:00 2015'
p2270
F516.6488000000002
sS'Fri Sep 19 00:00:00 2014'
p2271
F440.5900999999999
sS'Tue Dec 13 00:00:00 2016'
p2272
F1038.4218000000005
sS'Wed May  8 00:00:00 2013'
p2273
F111.1343
sS'Mon Feb 20 00:00:00 2017'
p2274
F1408.1706402230884
sS'Fri Dec 16 00:00:00 2016'
p2275
F1068.6438
sS'Tue Aug 26 00:00:00 2014'
p2276
F548.6713999999998
sS'Sat Jul  8 00:00:00 2017'
p2277
F3370.8507303447
sS'Sat Jun 22 00:00:00 2013'
p2278
F117.3214
sS'Sun Jun 16 00:00:00 2013'
p2279
F104.2936
sS'Wed Oct 21 00:00:00 2015'
p2280
F370.1512000000001
sS'Thu Jul 27 00:00:00 2017'
p2281
F3323.66304968009
sS'Fri Apr 25 00:00:00 2014'
p2282
F481.411
sS'Thu Jul 16 00:00:00 2015'
p2283
F373.6437000000001
sS'Mon Jan 13 00:00:00 2014'
p2284
F947.4823
sS'Wed Jun 21 00:00:00 2017'
p2285
F3597.73325032541
sS'Tue Jul 26 00:00:00 2016'
p2286
F866.5763999999999
sS'Fri Apr  4 00:00:00 2014'
p2287
F494.7318
sS'Sun Aug 13 00:00:00 2017'
p2288
F5098.79115346605
sS'Wed Jan 20 00:00:00 2016'
p2289
F606.0617
sS'Fri Oct 25 00:00:00 2013'
p2290
F185.8256
sS'Mon Sep 19 00:00:00 2016'
p2291
F807.2095781677841
sS'Mon Aug 15 00:00:00 2016'
p2292
F739.1490558267611
sS'Thu Aug  8 00:00:00 2013'
p2293
F105.461
sS'Thu Aug  3 00:00:00 2017'
p2294
F3491.11546260625
sS'Mon Jul  1 00:00:00 2013'
p2295
F92.5862
sS'Thu May 14 00:00:00 2015'
p2296
F292.9692000000001
sS'Sun Mar 15 00:00:00 2015'
p2297
F374.064
sS'Sun May 31 00:00:00 2015'
p2298
F300.622
sS'Tue Nov 10 00:00:00 2015'
p2299
F479.2166999999999
sS'Wed Aug 21 00:00:00 2013'
p2300
F122.9499
sS'Tue Nov 24 00:00:00 2015'
p2301
F440.6056
sS'Wed Apr 20 00:00:00 2016'
p2302
F566.8993999999998
sS'Sun Aug 27 00:00:00 2017'
p2303
F5180.10251433196
sS'Mon Dec 28 00:00:00 2015'
p2304
F580.2172999999999
sS'Mon Sep  5 00:00:00 2016'
p2305
F799.5340000000002
sS'Thu Oct 30 00:00:00 2014'
p2306
F389.1443
sS'Sun Mar  8 00:00:00 2015'
p2307
F356.1011
sS'Wed Jun 26 00:00:00 2013'
p2308
F112.2494
sS'Sun Jun 30 00:00:00 2013'
p2309
F106.6306
sS'Mon Dec 23 00:00:00 2013'
p2310
F753.6597
sS'Fri Dec 13 00:00:00 2013'
p2311
F1002.2347
sS'Sun Aug  4 00:00:00 2013'
p2312
F108.4731
sS'Sat Jan 23 00:00:00 2016'
p2313
F556.4092999999999
sS'Mon Jun 13 00:00:00 2016'
p2314
F953.8274171136262
sS'Tue Oct  4 00:00:00 2016'
p2315
F799.9574999999999
sS'Sun Sep  4 00:00:00 2016'
p2316
F804.0370000000005
sS'Sun Oct 22 00:00:00 2017'
p2317
F7691.20585164824
sS'Sun Dec 29 00:00:00 2013'
p2318
F841.1013
sS'Mon Jun  1 00:00:00 2015'
p2319
F293.4178999999999
sS'Fri May  5 00:00:00 2017'
p2320
F2027.7032
sS'Sun Jan 11 00:00:00 2015'
p2321
F325.1171
sS'Wed Mar 11 00:00:00 2015'
p2322
F389.5847000000001
sS'Wed Jun 18 00:00:00 2014'
p2323
F644.4195
sS'Tue Aug  9 00:00:00 2016'
p2324
F762.9381999999999
sS'Tue Jul  5 00:00:00 2016'
p2325
F895.404843633911
sS'Mon Mar 27 00:00:00 2017'
p2326
F1368.0610671329252
sS'Wed Jan 11 00:00:00 2017'
p2327
F1054.3215000000002
sS'Fri Oct 20 00:00:00 2017'
p2328
F7617.1126557684
sS'Sun Feb 23 00:00:00 2014'
p2329
F674.2628
sS'Tue Jun  6 23:29:55 2017'
p2330
F3863.4027
sS'Wed Aug 10 00:00:00 2016'
p2331
F767.6298034791907
sS'Tue Jul 18 00:00:00 2017'
p2332
F2911.72448410653
sS'Thu Jun 11 00:00:00 2015'
p2333
F296.6582
sS'Mon Dec 19 00:00:00 2016'
p2334
F1090.1131000000003
sS'Tue Mar  8 00:00:00 2016'
p2335
F553.6096
sS'Sun Aug 11 00:00:00 2013'
p2336
F102.322
sS'Mon Feb 22 00:00:00 2016'
p2337
F605.6469999999999
sS'Thu May 29 00:00:00 2014'
p2338
F481.411
sS'Mon Apr  7 00:00:00 2014'
p2339
F481.411
sS'Wed Nov 30 00:00:00 2016'
p2340
F1005.0956999999999
sS'Sun Mar 29 00:00:00 2015'
p2341
F312.6067
sS'Tue Apr 18 00:00:00 2017'
p2342
F1611.7151
sS'Wed Oct 25 00:00:00 2017'
p2343
F7156.91072107226
sS'Mon Feb 16 00:00:00 2015'
p2344
F303.7063000000001
sS'Wed Feb 10 00:00:00 2016'
p2345
F535.3066999999998
sS'Fri Oct 14 00:00:00 2016'
p2346
F837.5557
sS'Sat Jul 13 00:00:00 2013'
p2347
F101.056
sS'Mon Nov  4 00:00:00 2013'
p2348
F236.8848
sS'Thu Jun 22 00:00:00 2017'
p2349
F3614.07831764457
sS'Sun Nov 20 00:00:00 2016'
p2350
F993.5634
sS'Sat Jun 25 00:00:00 2016'
p2351
F891.915322302833
sS'Sun Sep  1 00:00:00 2013'
p2352
F143.7707
sS'Mon May 29 00:00:00 2017'
p2353
F3073.1465
sS'Sat Jan 25 00:00:00 2014'
p2354
F992.3575
sS'Thu Jan  5 00:00:00 2017'
p2355
F1350.0015
sS'Sun Mar  2 00:00:00 2014'
p2356
F629.1575
sS'Tue May 23 00:00:00 2017'
p2357
F3066.0907
sS'Tue Sep 19 00:00:00 2017'
p2358
F4867.24687009853
sS'Sun Mar 13 00:00:00 2016'
p2359
F546.3230999999998
sS'Thu Nov 28 00:00:00 2013'
p2360
F1140.2738
sS'Wed May  7 00:00:00 2014'
p2361
F481.411
sS'Fri Dec 23 00:00:00 2016'
p2362
F1278.8052000000002
sS'Mon Sep 22 00:00:00 2014'
p2363
F448.7534000000001
sS'Sat Jul 25 00:00:00 2015'
p2364
F395.9505372067071
sS'Mon Mar  9 00:00:00 2015'
p2365
F375.7326
sS'Wed Oct  2 00:00:00 2013'
p2366
F106.3846
sS'Fri Jul  8 00:00:00 2016'
p2367
F879.0240023790808
sS'Mon Aug  7 00:00:00 2017'
p2368
F4244.96898239895
sS'Sun Feb 15 00:00:00 2015'
p2369
F299.8818
sS'Wed Jan  7 00:00:00 2015'
p2370
F366.3369
sS'Mon May  9 00:00:00 2016'
p2371
F631.2335999999999
sS'Sat May  2 00:00:00 2015'
p2372
F299.4979
sS'Wed Nov  5 00:00:00 2014'
p2373
F393.3881
sS'Wed Jul 13 00:00:00 2016'
p2374
F865.9448999999998
sS'Fri Dec 18 00:00:00 2015'
p2375
F646.3748
sS'Sun Sep 25 00:00:00 2016'
p2376
F786.9685999999998
sS'Fri Mar  7 00:00:00 2014'
p2377
F690.0653
sS'Wed Oct  8 00:00:00 2014'
p2378
F400.4857
sS'Sat Feb  1 00:00:00 2014'
p2379
F974.3682
sS'Sat Aug 23 00:00:00 2014'
p2380
F533.0916999999997
sS'Sun Jun 23 00:00:00 2013'
p2381
F116.9707
sS'Sun Apr 27 00:00:00 2014'
p2382
F481.411
sS'Mon May 13 00:00:00 2013'
p2383
F117.8627
sS'Thu Sep 18 00:00:00 2014'
p2384
F471.3654
sS'Wed Mar  1 00:00:00 2017'
p2385
F1597.91311151976
sS'Mon Jun 26 00:00:00 2017'
p2386
F3282.00772370798
sS'Thu Jan 22 00:00:00 2015'
p2387
F289.4737
sS'Mon Feb 13 00:00:00 2017'
p2388
F1303.8563488902391
sS'Tue Jul 12 00:00:00 2016'
p2389
F880.2837999999997
sS'Sat Sep 27 00:00:00 2014'
p2390
F453.9827999999999
sS'Wed Dec 16 00:00:00 2015'
p2391
F628.4312
sS'Fri Jul 24 00:00:00 2015'
p2392
F396.0282567005328
sS'Sat Oct 25 00:00:00 2014'
p2393
F394.5413837210521
sS'Fri Jul 15 00:00:00 2016'
p2394
F878.4658714447978
sS'Thu Mar 12 00:00:00 2015'
p2395
F381.5479
sS'Sun Oct 18 00:00:00 2015'
p2396
F361.0471000000001
sS'Sun Nov  2 00:00:00 2014'
p2397
F369.5563999999999
sS'Fri Nov 11 00:00:00 2016'
p2398
F947.7684999999997
sS'Fri Oct  4 00:00:00 2013'
p2399
F128.5644
sS'Tue Oct 13 00:00:00 2015'
p2400
F345.6238
sS'Sat Jul 29 00:00:00 2017'
p2401
F3406.0875721926
sS'Sat Jun 24 00:00:00 2017'
p2402
F3459.34745454914
sS'Sat May  6 00:00:00 2017'
p2403
F2087.7562
sS'Tue Feb 25 00:00:00 2014'
p2404
F593.0082
sS'Mon Oct 10 00:00:00 2016'
p2405
F807.1548000000004
sS'Mon Jul 18 00:00:00 2016'
p2406
F890.446906768964
sS'Sat Nov 22 00:00:00 2014'
p2407
F405.4307000000001
sS'Sun Nov  8 00:00:00 2015'
p2408
F528.3854
sS'Thu Nov  5 00:00:00 2015'
p2409
F542.3436000000002
sS'Sun Oct 15 00:00:00 2017'
p2410
F7209.6453468647
sS'Thu Sep  1 00:00:00 2016'
p2411
F756.5924999999999
sS'Thu Jun  9 00:00:00 2016'
p2412
F777.1371000000001
sS'Wed May 18 00:00:00 2016'
p2413
F625.8584000000001
sS'Thu May 12 00:00:00 2016'
p2414
F620.9998
sS'Wed Sep 24 00:00:00 2014'
p2415
F474.1965
sS'Sat Apr 15 00:00:00 2017'
p2416
F1558.0987
sS'Tue Oct 22 00:00:00 2013'
p2417
F189.576
sS'Fri Feb  5 00:00:00 2016'
p2418
F545.3988000000002
sS'Sun Jun  8 00:00:00 2014'
p2419
F481.411
sS'Thu May 26 00:00:00 2016'
p2420
F628.2309000000001
sS'Mon Feb 23 00:00:00 2015'
p2421
F305.3298
sS'Sun Aug 10 00:00:00 2014'
p2422
F634.562575986713
sS'Fri Mar 10 00:00:00 2017'
p2423
F1457.7823761942473
sS'Mon Mar 13 00:00:00 2017'
p2424
F1643.3845696290634
sS'Tue Nov 26 00:00:00 2013'
p2425
F985.0574
sS'Tue Aug 19 00:00:00 2014'
p2426
F520.5155000000001
sS'Sun Feb  1 00:00:00 2015'
p2427
F291.7302
sS'Sun Sep 10 00:00:00 2017'
p2428
F5132.41407655663
sS'Wed Jun 28 00:00:00 2017'
p2429
F3372.10823747897
sS'Sat May 17 00:00:00 2014'
p2430
F481.411
sS'Fri Aug 29 00:00:00 2014'
p2431
F544.2832000000001
sS'Tue Feb 14 00:00:00 2017'
p2432
F1316.5485157567684
sS'Thu Aug 10 00:00:00 2017'
p2433
F4282.97538447623
sS'Thu Feb 18 00:00:00 2016'
p2434
F589.2511999999999
sS'Sun Dec  4 00:00:00 2016'
p2435
F1030.8617999999994
sS'Wed Oct  9 00:00:00 2013'
p2436
F133.2012
sS'Mon Apr 27 00:00:00 2015'
p2437
F291.1409
sS'Sat Jun  6 00:00:00 2015'
p2438
F295.4329999999999
sS'Wed Mar  8 00:00:00 2017'
p2439
F1528.1595
sS'Thu Nov 26 00:00:00 2015'
p2440
F494.0443
sS'Wed Jun  4 00:00:00 2014'
p2441
F481.411
sS'Sat Aug 16 00:00:00 2014'
p2442
F558.9283999999999
sS'Sat Apr 30 00:00:00 2016'
p2443
F588.8308
sS'Wed Mar 29 00:00:00 2017'
p2444
F1354.9644149801134
sS'Sat May  3 00:00:00 2014'
p2445
F481.411
sS'Thu Jun  6 00:00:00 2013'
p2446
F124.6313
sS'Mon Aug 25 00:00:00 2014'
p2447
F538.5287000000001
sS'Thu Dec 24 00:00:00 2015'
p2448
F625.7409999999999
sS'Fri Jun 27 00:00:00 2014'
p2449
F637.3929
sS'Wed May 21 00:00:00 2014'
p2450
F481.411
sS'Fri Sep  5 00:00:00 2014'
p2451
F512.1180999999999
sS'Wed Jul 10 00:00:00 2013'
p2452
F92.213
sS'Thu May 23 00:00:00 2013'
p2453
F130.0716
sS'Tue May 27 00:00:00 2014'
p2454
F481.411
ss.